
/home/fae/Tech/uC/Led-Matrix/Snake/build/JUST-SNAKE.elf:     file format elf32-littlearm

Sections:
Idx Name          Size      VMA       LMA       File off  Algn
  0 .boot2        00000100  10000000  10000000  00001000  2**0
                  CONTENTS, ALLOC, LOAD, READONLY, CODE
  1 .text         00003770  10000100  10000100  00001100  2**3
                  CONTENTS, ALLOC, LOAD, READONLY, CODE
  2 .rodata       00000110  10003870  10003870  00004870  2**2
                  CONTENTS, ALLOC, LOAD, READONLY, DATA
  3 .binary_info  0000001c  10003980  10003980  00004980  2**2
                  CONTENTS, ALLOC, LOAD, DATA
  4 .ram_vector_table 000000c0  20000000  20000000  00005bc4  2**2
                  CONTENTS
  5 .data         00000b04  200000c0  1000399c  000050c0  2**4
                  CONTENTS, ALLOC, LOAD, READONLY, CODE
  6 .uninitialized_data 00000000  20000bc4  20000bc4  00005c84  2**0
                  CONTENTS
  7 .scratch_x    00000000  20040000  20040000  00005c84  2**0
                  CONTENTS
  8 .scratch_y    00000000  20041000  20041000  00005c84  2**0
                  CONTENTS
  9 .bss          00000744  20000bc8  20000bc8  00005bc8  2**3
                  ALLOC
 10 .heap         00000800  2000130c  2000130c  00005c84  2**2
                  CONTENTS, READONLY
 11 .stack_dummy  00000800  20041000  20041000  000064a0  2**5
                  CONTENTS, READONLY
 12 .ARM.attributes 00000028  00000000  00000000  00006ca0  2**0
                  CONTENTS, READONLY
 13 .comment      0000003c  00000000  00000000  00006cc8  2**0
                  CONTENTS, READONLY
 14 .debug_line   00002047  00000000  00000000  00006d04  2**0
                  CONTENTS, READONLY, DEBUGGING, OCTETS
 15 .debug_line_str 00000092  00000000  00000000  00008d4b  2**0
                  CONTENTS, READONLY, DEBUGGING, OCTETS
 16 .debug_info   000063f2  00000000  00000000  00008ddd  2**0
                  CONTENTS, READONLY, DEBUGGING, OCTETS
 17 .debug_abbrev 000019aa  00000000  00000000  0000f1cf  2**0
                  CONTENTS, READONLY, DEBUGGING, OCTETS
 18 .debug_aranges 000001e8  00000000  00000000  00010b80  2**3
                  CONTENTS, READONLY, DEBUGGING, OCTETS
 19 .debug_str    00000f9e  00000000  00000000  00010d68  2**0
                  CONTENTS, READONLY, DEBUGGING, OCTETS
 20 .debug_loclists 000012c7  00000000  00000000  00011d06  2**0
                  CONTENTS, READONLY, DEBUGGING, OCTETS
 21 .debug_rnglists 00000153  00000000  00000000  00012fcd  2**0
                  CONTENTS, READONLY, DEBUGGING, OCTETS
 22 .debug_frame  00000348  00000000  00000000  00013120  2**2
                  CONTENTS, READONLY, DEBUGGING, OCTETS

/home/fae/Tech/uC/Led-Matrix/Snake/build/JUST-SNAKE.elf:     file format elf32-littlearm


Disassembly of section .boot2:

10000000 <__boot2_start__>:
10000000:	4b32b500 	.word	0x4b32b500
10000004:	60582021 	.word	0x60582021
10000008:	21026898 	.word	0x21026898
1000000c:	60984388 	.word	0x60984388
10000010:	611860d8 	.word	0x611860d8
10000014:	4b2e6158 	.word	0x4b2e6158
10000018:	60992100 	.word	0x60992100
1000001c:	61592102 	.word	0x61592102
10000020:	22f02101 	.word	0x22f02101
10000024:	492b5099 	.word	0x492b5099
10000028:	21016019 	.word	0x21016019
1000002c:	20356099 	.word	0x20356099
10000030:	f844f000 	.word	0xf844f000
10000034:	42902202 	.word	0x42902202
10000038:	2106d014 	.word	0x2106d014
1000003c:	f0006619 	.word	0xf0006619
10000040:	6e19f834 	.word	0x6e19f834
10000044:	66192101 	.word	0x66192101
10000048:	66182000 	.word	0x66182000
1000004c:	f000661a 	.word	0xf000661a
10000050:	6e19f82c 	.word	0x6e19f82c
10000054:	6e196e19 	.word	0x6e196e19
10000058:	f0002005 	.word	0xf0002005
1000005c:	2101f82f 	.word	0x2101f82f
10000060:	d1f94208 	.word	0xd1f94208
10000064:	60992100 	.word	0x60992100
10000068:	6019491b 	.word	0x6019491b
1000006c:	60592100 	.word	0x60592100
10000070:	481b491a 	.word	0x481b491a
10000074:	21016001 	.word	0x21016001
10000078:	21eb6099 	.word	0x21eb6099
1000007c:	21a06619 	.word	0x21a06619
10000080:	f0006619 	.word	0xf0006619
10000084:	2100f812 	.word	0x2100f812
10000088:	49166099 	.word	0x49166099
1000008c:	60014814 	.word	0x60014814
10000090:	60992101 	.word	0x60992101
10000094:	2800bc01 	.word	0x2800bc01
10000098:	4700d000 	.word	0x4700d000
1000009c:	49134812 	.word	0x49134812
100000a0:	c8036008 	.word	0xc8036008
100000a4:	8808f380 	.word	0x8808f380
100000a8:	b5034708 	.word	0xb5034708
100000ac:	20046a99 	.word	0x20046a99
100000b0:	d0fb4201 	.word	0xd0fb4201
100000b4:	42012001 	.word	0x42012001
100000b8:	bd03d1f8 	.word	0xbd03d1f8
100000bc:	6618b502 	.word	0x6618b502
100000c0:	f7ff6618 	.word	0xf7ff6618
100000c4:	6e18fff2 	.word	0x6e18fff2
100000c8:	bd026e18 	.word	0xbd026e18
100000cc:	40020000 	.word	0x40020000
100000d0:	18000000 	.word	0x18000000
100000d4:	00070000 	.word	0x00070000
100000d8:	005f0300 	.word	0x005f0300
100000dc:	00002221 	.word	0x00002221
100000e0:	180000f4 	.word	0x180000f4
100000e4:	a0002022 	.word	0xa0002022
100000e8:	10000100 	.word	0x10000100
100000ec:	e000ed08 	.word	0xe000ed08
	...
100000fc:	7a4eb274 	.word	0x7a4eb274

Disassembly of section .text:

10000100 <__VECTOR_TABLE>:
10000100:	20042000 	.word	0x20042000
10000104:	100001f7 	.word	0x100001f7
10000108:	100001c3 	.word	0x100001c3
1000010c:	100001c5 	.word	0x100001c5
10000110:	100001c1 	.word	0x100001c1
10000114:	100001c1 	.word	0x100001c1
10000118:	100001c1 	.word	0x100001c1
1000011c:	100001c1 	.word	0x100001c1
10000120:	100001c1 	.word	0x100001c1
10000124:	100001c1 	.word	0x100001c1
10000128:	100001c1 	.word	0x100001c1
1000012c:	100001c7 	.word	0x100001c7
10000130:	100001c1 	.word	0x100001c1
10000134:	100001c1 	.word	0x100001c1
10000138:	100001c9 	.word	0x100001c9
1000013c:	100001cb 	.word	0x100001cb
10000140:	100001cd 	.word	0x100001cd
10000144:	100001cd 	.word	0x100001cd
10000148:	100001cd 	.word	0x100001cd
1000014c:	100001cd 	.word	0x100001cd
10000150:	100001cd 	.word	0x100001cd
10000154:	100001cd 	.word	0x100001cd
10000158:	100001cd 	.word	0x100001cd
1000015c:	100001cd 	.word	0x100001cd
10000160:	100001cd 	.word	0x100001cd
10000164:	100001cd 	.word	0x100001cd
10000168:	100001cd 	.word	0x100001cd
1000016c:	100001cd 	.word	0x100001cd
10000170:	100001cd 	.word	0x100001cd
10000174:	100001cd 	.word	0x100001cd
10000178:	100001cd 	.word	0x100001cd
1000017c:	100001cd 	.word	0x100001cd
10000180:	100001cd 	.word	0x100001cd
10000184:	100001cd 	.word	0x100001cd
10000188:	100001cd 	.word	0x100001cd
1000018c:	100001cd 	.word	0x100001cd
10000190:	100001cd 	.word	0x100001cd
10000194:	100001cd 	.word	0x100001cd
10000198:	100001cd 	.word	0x100001cd
1000019c:	100001cd 	.word	0x100001cd
100001a0:	100001cd 	.word	0x100001cd
100001a4:	100001cd 	.word	0x100001cd
100001a8:	100001cd 	.word	0x100001cd
100001ac:	100001cd 	.word	0x100001cd
100001b0:	100001cd 	.word	0x100001cd
100001b4:	100001cd 	.word	0x100001cd
100001b8:	100001cd 	.word	0x100001cd
100001bc:	100001cd 	.word	0x100001cd

100001c0 <isr_invalid>:
100001c0:	be00      	bkpt	0x0000

100001c2 <isr_nmi>:
100001c2:	be00      	bkpt	0x0000

100001c4 <isr_hardfault>:
100001c4:	be00      	bkpt	0x0000

100001c6 <isr_svcall>:
100001c6:	be00      	bkpt	0x0000

100001c8 <isr_pendsv>:
100001c8:	be00      	bkpt	0x0000

100001ca <isr_systick>:
100001ca:	be00      	bkpt	0x0000

100001cc <__unhandled_user_irq>:
100001cc:	f000 f84b 	bl	10000266 <__get_current_exception>
100001d0:	3810      	subs	r0, #16

100001d2 <unhandled_user_irq_num_in_r0>:
100001d2:	be00      	bkpt	0x0000

100001d4 <binary_info_header>:
100001d4:	7188ebf2 	.word	0x7188ebf2
100001d8:	10003980 	.word	0x10003980
100001dc:	1000399c 	.word	0x1000399c
100001e0:	10000234 	.word	0x10000234
100001e4:	e71aa390 	.word	0xe71aa390

100001e8 <_entry_point>:
100001e8:	2000      	movs	r0, #0
100001ea:	4921      	ldr	r1, [pc, #132]	; (10000270 <__get_current_exception+0xa>)
100001ec:	6008      	str	r0, [r1, #0]
100001ee:	c806      	ldmia	r0!, {r1, r2}
100001f0:	f381 8808 	msr	MSP, r1
100001f4:	4710      	bx	r2

100001f6 <_reset_handler>:
100001f6:	481f      	ldr	r0, [pc, #124]	; (10000274 <__get_current_exception+0xe>)
100001f8:	6800      	ldr	r0, [r0, #0]
100001fa:	2800      	cmp	r0, #0
100001fc:	d12f      	bne.n	1000025e <hold_non_core0_in_bootrom>
100001fe:	a40d      	add	r4, pc, #52	; (adr r4, 10000234 <data_cpy_table>)
10000200:	cc0e      	ldmia	r4!, {r1, r2, r3}
10000202:	2900      	cmp	r1, #0
10000204:	d002      	beq.n	1000020c <_reset_handler+0x16>
10000206:	f000 f812 	bl	1000022e <data_cpy>
1000020a:	e7f9      	b.n	10000200 <_reset_handler+0xa>
1000020c:	491a      	ldr	r1, [pc, #104]	; (10000278 <__get_current_exception+0x12>)
1000020e:	4a1b      	ldr	r2, [pc, #108]	; (1000027c <__get_current_exception+0x16>)
10000210:	2000      	movs	r0, #0
10000212:	e000      	b.n	10000216 <bss_fill_test>

10000214 <bss_fill_loop>:
10000214:	c101      	stmia	r1!, {r0}

10000216 <bss_fill_test>:
10000216:	4291      	cmp	r1, r2
10000218:	d1fc      	bne.n	10000214 <bss_fill_loop>

1000021a <platform_entry>:
1000021a:	4919      	ldr	r1, [pc, #100]	; (10000280 <__get_current_exception+0x1a>)
1000021c:	4788      	blx	r1
1000021e:	4919      	ldr	r1, [pc, #100]	; (10000284 <__get_current_exception+0x1e>)
10000220:	4788      	blx	r1
10000222:	4919      	ldr	r1, [pc, #100]	; (10000288 <__get_current_exception+0x22>)
10000224:	4788      	blx	r1
10000226:	be00      	bkpt	0x0000
10000228:	e7fd      	b.n	10000226 <platform_entry+0xc>

1000022a <data_cpy_loop>:
1000022a:	c901      	ldmia	r1!, {r0}
1000022c:	c201      	stmia	r2!, {r0}

1000022e <data_cpy>:
1000022e:	429a      	cmp	r2, r3
10000230:	d3fb      	bcc.n	1000022a <data_cpy_loop>
10000232:	4770      	bx	lr

10000234 <data_cpy_table>:
10000234:	1000399c 	.word	0x1000399c
10000238:	200000c0 	.word	0x200000c0
1000023c:	20000bc4 	.word	0x20000bc4
10000240:	100044a0 	.word	0x100044a0
10000244:	20040000 	.word	0x20040000
10000248:	20040000 	.word	0x20040000
1000024c:	100044a0 	.word	0x100044a0
10000250:	20041000 	.word	0x20041000
10000254:	20041000 	.word	0x20041000
10000258:	00000000 	.word	0x00000000
1000025c:	4770      	bx	lr

1000025e <hold_non_core0_in_bootrom>:
1000025e:	480b      	ldr	r0, [pc, #44]	; (1000028c <__get_current_exception+0x26>)
10000260:	f002 fbaa 	bl	100029b8 <rom_func_lookup>
10000264:	4700      	bx	r0

10000266 <__get_current_exception>:
10000266:	f3ef 8005 	mrs	r0, IPSR
1000026a:	b2c0      	uxtb	r0, r0
1000026c:	4770      	bx	lr
1000026e:	0000      	.short	0x0000
10000270:	e000ed08 	.word	0xe000ed08
10000274:	d0000000 	.word	0xd0000000
10000278:	20000bc8 	.word	0x20000bc8
1000027c:	2000130c 	.word	0x2000130c
10000280:	10002475 	.word	0x10002475
10000284:	100002e5 	.word	0x100002e5
10000288:	10002595 	.word	0x10002595
1000028c:	00005657 	.word	0x00005657

10000290 <__bi_50>:
10000290:	50520006 5360b3ab 1000392c              ..RP..`S,9..

1000029c <__bi_38>:
1000029c:	50520006 02031c86 1000393c              ..RP....<9..

100002a8 <__bi_30>:
100002a8:	50520006 9da22254 10003948              ..RPT"..H9..

100002b4 <__bi_22>:
100002b4:	50520005 68f465de 100044a0              ..RP.e.h.D..

100002c0 <_init>:
100002c0:	b5f8      	push	{r3, r4, r5, r6, r7, lr}
100002c2:	46c0      	nop			; (mov r8, r8)

100002c4 <frame_dummy>:
100002c4:	4b04      	ldr	r3, [pc, #16]	; (100002d8 <frame_dummy+0x14>)
100002c6:	b510      	push	{r4, lr}
100002c8:	2b00      	cmp	r3, #0
100002ca:	d003      	beq.n	100002d4 <frame_dummy+0x10>
100002cc:	4903      	ldr	r1, [pc, #12]	; (100002dc <frame_dummy+0x18>)
100002ce:	4804      	ldr	r0, [pc, #16]	; (100002e0 <frame_dummy+0x1c>)
100002d0:	e000      	b.n	100002d4 <frame_dummy+0x10>
100002d2:	bf00      	nop
100002d4:	bd10      	pop	{r4, pc}
100002d6:	46c0      	nop			; (mov r8, r8)
100002d8:	00000000 	.word	0x00000000
100002dc:	200011b0 	.word	0x200011b0
100002e0:	10003870 	.word	0x10003870

100002e4 <main>:
100002e4:	b510      	push	{r4, lr}
100002e6:	b084      	sub	sp, #16
100002e8:	4669      	mov	r1, sp
100002ea:	4b10      	ldr	r3, [pc, #64]	; (1000032c <main+0x48>)
100002ec:	4668      	mov	r0, sp
100002ee:	681a      	ldr	r2, [r3, #0]
100002f0:	9200      	str	r2, [sp, #0]
100002f2:	889a      	ldrh	r2, [r3, #4]
100002f4:	808a      	strh	r2, [r1, #4]
100002f6:	689a      	ldr	r2, [r3, #8]
100002f8:	9202      	str	r2, [sp, #8]
100002fa:	899b      	ldrh	r3, [r3, #12]
100002fc:	818b      	strh	r3, [r1, #12]
100002fe:	f000 fa55 	bl	100007ac <sr_init>
10000302:	a802      	add	r0, sp, #8
10000304:	f000 fa52 	bl	100007ac <sr_init>
10000308:	466a      	mov	r2, sp
1000030a:	4b09      	ldr	r3, [pc, #36]	; (10000330 <main+0x4c>)
1000030c:	601a      	str	r2, [r3, #0]
1000030e:	4b09      	ldr	r3, [pc, #36]	; (10000334 <main+0x50>)
10000310:	aa02      	add	r2, sp, #8
10000312:	601a      	str	r2, [r3, #0]
10000314:	f000 fc6a 	bl	10000bec <init_rand>
10000318:	f000 f95c 	bl	100005d4 <init_snake_game>
1000031c:	2001      	movs	r0, #1
1000031e:	f000 f9fb 	bl	10000718 <run_snake_game>
10000322:	4c05      	ldr	r4, [pc, #20]	; (10000338 <main+0x54>)
10000324:	0020      	movs	r0, r4
10000326:	f000 fb21 	bl	1000096c <matrix_print_frame>
1000032a:	e7fb      	b.n	10000324 <main+0x40>
1000032c:	10003870 	.word	0x10003870
10000330:	200011a4 	.word	0x200011a4
10000334:	200011a0 	.word	0x200011a0
10000338:	10003880 	.word	0x10003880

1000033c <go_callback>:
1000033c:	4a0e      	ldr	r2, [pc, #56]	; (10000378 <go_callback+0x3c>)
1000033e:	6941      	ldr	r1, [r0, #20]
10000340:	7813      	ldrb	r3, [r2, #0]
10000342:	2b00      	cmp	r3, #0
10000344:	d108      	bne.n	10000358 <go_callback+0x1c>
10000346:	4b0d      	ldr	r3, [pc, #52]	; (1000037c <go_callback+0x40>)
10000348:	6808      	ldr	r0, [r1, #0]
1000034a:	6018      	str	r0, [r3, #0]
1000034c:	4b0c      	ldr	r3, [pc, #48]	; (10000380 <go_callback+0x44>)
1000034e:	600b      	str	r3, [r1, #0]
10000350:	2301      	movs	r3, #1
10000352:	7013      	strb	r3, [r2, #0]
10000354:	2001      	movs	r0, #1
10000356:	e00c      	b.n	10000372 <go_callback+0x36>
10000358:	07d8      	lsls	r0, r3, #31
1000035a:	d50b      	bpl.n	10000374 <go_callback+0x38>
1000035c:	4807      	ldr	r0, [pc, #28]	; (1000037c <go_callback+0x40>)
1000035e:	6800      	ldr	r0, [r0, #0]
10000360:	6008      	str	r0, [r1, #0]
10000362:	1c59      	adds	r1, r3, #1
10000364:	7011      	strb	r1, [r2, #0]
10000366:	2b08      	cmp	r3, #8
10000368:	d9f4      	bls.n	10000354 <go_callback+0x18>
1000036a:	2201      	movs	r2, #1
1000036c:	2000      	movs	r0, #0
1000036e:	4b05      	ldr	r3, [pc, #20]	; (10000384 <go_callback+0x48>)
10000370:	701a      	strb	r2, [r3, #0]
10000372:	4770      	bx	lr
10000374:	4802      	ldr	r0, [pc, #8]	; (10000380 <go_callback+0x44>)
10000376:	e7f3      	b.n	10000360 <go_callback+0x24>
10000378:	20001302 	.word	0x20001302
1000037c:	20000f3c 	.word	0x20000f3c
10000380:	100038a0 	.word	0x100038a0
10000384:	20001303 	.word	0x20001303

10000388 <input_callback>:
10000388:	2802      	cmp	r0, #2
1000038a:	d015      	beq.n	100003b8 <input_callback+0x30>
1000038c:	d80a      	bhi.n	100003a4 <input_callback+0x1c>
1000038e:	2800      	cmp	r0, #0
10000390:	d01a      	beq.n	100003c8 <input_callback+0x40>
10000392:	2384      	movs	r3, #132	; 0x84
10000394:	4a10      	ldr	r2, [pc, #64]	; (100003d8 <input_callback+0x50>)
10000396:	005b      	lsls	r3, r3, #1
10000398:	5cd1      	ldrb	r1, [r2, r3]
1000039a:	2903      	cmp	r1, #3
1000039c:	d001      	beq.n	100003a2 <input_callback+0x1a>
1000039e:	2101      	movs	r1, #1
100003a0:	54d1      	strb	r1, [r2, r3]
100003a2:	4770      	bx	lr
100003a4:	2803      	cmp	r0, #3
100003a6:	d1fc      	bne.n	100003a2 <input_callback+0x1a>
100003a8:	2384      	movs	r3, #132	; 0x84
100003aa:	4a0b      	ldr	r2, [pc, #44]	; (100003d8 <input_callback+0x50>)
100003ac:	005b      	lsls	r3, r3, #1
100003ae:	5cd1      	ldrb	r1, [r2, r3]
100003b0:	2901      	cmp	r1, #1
100003b2:	d0f6      	beq.n	100003a2 <input_callback+0x1a>
100003b4:	54d0      	strb	r0, [r2, r3]
100003b6:	e7f4      	b.n	100003a2 <input_callback+0x1a>
100003b8:	2384      	movs	r3, #132	; 0x84
100003ba:	4a07      	ldr	r2, [pc, #28]	; (100003d8 <input_callback+0x50>)
100003bc:	005b      	lsls	r3, r3, #1
100003be:	5cd1      	ldrb	r1, [r2, r3]
100003c0:	2900      	cmp	r1, #0
100003c2:	d0ee      	beq.n	100003a2 <input_callback+0x1a>
100003c4:	54d0      	strb	r0, [r2, r3]
100003c6:	e7ec      	b.n	100003a2 <input_callback+0x1a>
100003c8:	2384      	movs	r3, #132	; 0x84
100003ca:	4a03      	ldr	r2, [pc, #12]	; (100003d8 <input_callback+0x50>)
100003cc:	005b      	lsls	r3, r3, #1
100003ce:	5cd1      	ldrb	r1, [r2, r3]
100003d0:	2902      	cmp	r1, #2
100003d2:	d0e6      	beq.n	100003a2 <input_callback+0x1a>
100003d4:	54d0      	strb	r0, [r2, r3]
100003d6:	e7e4      	b.n	100003a2 <input_callback+0x1a>
100003d8:	20001094 	.word	0x20001094

100003dc <game_update>:
100003dc:	b5f0      	push	{r4, r5, r6, r7, lr}
100003de:	46d6      	mov	lr, sl
100003e0:	464f      	mov	r7, r9
100003e2:	4646      	mov	r6, r8
100003e4:	2280      	movs	r2, #128	; 0x80
100003e6:	b5c0      	push	{r6, r7, lr}
100003e8:	4d78      	ldr	r5, [pc, #480]	; (100005cc <game_update+0x1f0>)
100003ea:	2384      	movs	r3, #132	; 0x84
100003ec:	0052      	lsls	r2, r2, #1
100003ee:	5ca9      	ldrb	r1, [r5, r2]
100003f0:	2202      	movs	r2, #2
100003f2:	005b      	lsls	r3, r3, #1
100003f4:	5ceb      	ldrb	r3, [r5, r3]
100003f6:	32ff      	adds	r2, #255	; 0xff
100003f8:	4682      	mov	sl, r0
100003fa:	5caa      	ldrb	r2, [r5, r2]
100003fc:	2b02      	cmp	r3, #2
100003fe:	d100      	bne.n	10000402 <game_update+0x26>
10000400:	e097      	b.n	10000532 <game_update+0x156>
10000402:	2b03      	cmp	r3, #3
10000404:	d100      	bne.n	10000408 <game_update+0x2c>
10000406:	e090      	b.n	1000052a <game_update+0x14e>
10000408:	2b01      	cmp	r3, #1
1000040a:	d100      	bne.n	1000040e <game_update+0x32>
1000040c:	e089      	b.n	10000522 <game_update+0x146>
1000040e:	0017      	movs	r7, r2
10000410:	1e4c      	subs	r4, r1, #1
10000412:	b2e4      	uxtb	r4, r4
10000414:	0123      	lsls	r3, r4, #4
10000416:	18eb      	adds	r3, r5, r3
10000418:	5ddb      	ldrb	r3, [r3, r7]
1000041a:	46a4      	mov	ip, r4
1000041c:	003e      	movs	r6, r7
1000041e:	2b00      	cmp	r3, #0
10000420:	d043      	beq.n	100004aa <game_update+0xce>
10000422:	2b03      	cmp	r3, #3
10000424:	d100      	bne.n	10000428 <game_update+0x4c>
10000426:	e088      	b.n	1000053a <game_update+0x15e>
10000428:	2201      	movs	r2, #1
1000042a:	4b69      	ldr	r3, [pc, #420]	; (100005d0 <game_update+0x1f4>)
1000042c:	2108      	movs	r1, #8
1000042e:	701a      	strb	r2, [r3, #0]
10000430:	2000      	movs	r0, #0
10000432:	2200      	movs	r2, #0
10000434:	f000 fd4c 	bl	10000ed0 <gpio_set_irq_enabled>
10000438:	2200      	movs	r2, #0
1000043a:	2108      	movs	r1, #8
1000043c:	2001      	movs	r0, #1
1000043e:	f000 fd47 	bl	10000ed0 <gpio_set_irq_enabled>
10000442:	2200      	movs	r2, #0
10000444:	2108      	movs	r1, #8
10000446:	2002      	movs	r0, #2
10000448:	f000 fd42 	bl	10000ed0 <gpio_set_irq_enabled>
1000044c:	2200      	movs	r2, #0
1000044e:	2108      	movs	r1, #8
10000450:	2003      	movs	r0, #3
10000452:	f000 fd3d 	bl	10000ed0 <gpio_set_irq_enabled>
10000456:	2200      	movs	r2, #0
10000458:	2100      	movs	r1, #0
1000045a:	2000      	movs	r0, #0
1000045c:	f000 fd26 	bl	10000eac <gpio_set_pulls>
10000460:	2200      	movs	r2, #0
10000462:	2100      	movs	r1, #0
10000464:	2001      	movs	r0, #1
10000466:	f000 fd21 	bl	10000eac <gpio_set_pulls>
1000046a:	2200      	movs	r2, #0
1000046c:	2100      	movs	r1, #0
1000046e:	2002      	movs	r0, #2
10000470:	f000 fd1c 	bl	10000eac <gpio_set_pulls>
10000474:	2003      	movs	r0, #3
10000476:	2200      	movs	r2, #0
10000478:	2100      	movs	r1, #0
1000047a:	f000 fd17 	bl	10000eac <gpio_set_pulls>
1000047e:	2382      	movs	r3, #130	; 0x82
10000480:	005b      	lsls	r3, r3, #1
10000482:	58e8      	ldr	r0, [r5, r3]
10000484:	2800      	cmp	r0, #0
10000486:	d00a      	beq.n	1000049e <game_update+0xc2>
10000488:	6844      	ldr	r4, [r0, #4]
1000048a:	2c00      	cmp	r4, #0
1000048c:	d005      	beq.n	1000049a <game_update+0xbe>
1000048e:	f002 fbc1 	bl	10002c14 <__wrap_free>
10000492:	0020      	movs	r0, r4
10000494:	6864      	ldr	r4, [r4, #4]
10000496:	2c00      	cmp	r4, #0
10000498:	d1f9      	bne.n	1000048e <game_update+0xb2>
1000049a:	f002 fbbb 	bl	10002c14 <__wrap_free>
1000049e:	2000      	movs	r0, #0
100004a0:	bce0      	pop	{r5, r6, r7}
100004a2:	46ba      	mov	sl, r7
100004a4:	46b1      	mov	r9, r6
100004a6:	46a8      	mov	r8, r5
100004a8:	bdf0      	pop	{r4, r5, r6, r7, pc}
100004aa:	3305      	adds	r3, #5
100004ac:	33ff      	adds	r3, #255	; 0xff
100004ae:	58eb      	ldr	r3, [r5, r3]
100004b0:	2b00      	cmp	r3, #0
100004b2:	d100      	bne.n	100004b6 <game_update+0xda>
100004b4:	e082      	b.n	100005bc <game_update+0x1e0>
100004b6:	2001      	movs	r0, #1
100004b8:	2602      	movs	r6, #2
100004ba:	4680      	mov	r8, r0
100004bc:	1c68      	adds	r0, r5, #1
100004be:	46b4      	mov	ip, r6
100004c0:	30ff      	adds	r0, #255	; 0xff
100004c2:	e010      	b.n	100004e6 <game_update+0x10a>
100004c4:	4660      	mov	r0, ip
100004c6:	0124      	lsls	r4, r4, #4
100004c8:	192c      	adds	r4, r5, r4
100004ca:	55e0      	strb	r0, [r4, r7]
100004cc:	685e      	ldr	r6, [r3, #4]
100004ce:	7818      	ldrb	r0, [r3, #0]
100004d0:	785c      	ldrb	r4, [r3, #1]
100004d2:	2e00      	cmp	r6, #0
100004d4:	d011      	beq.n	100004fa <game_update+0x11e>
100004d6:	0017      	movs	r7, r2
100004d8:	0022      	movs	r2, r4
100004da:	000c      	movs	r4, r1
100004dc:	0001      	movs	r1, r0
100004de:	0018      	movs	r0, r3
100004e0:	0033      	movs	r3, r6
100004e2:	2600      	movs	r6, #0
100004e4:	46b0      	mov	r8, r6
100004e6:	7004      	strb	r4, [r0, #0]
100004e8:	7047      	strb	r7, [r0, #1]
100004ea:	4640      	mov	r0, r8
100004ec:	2800      	cmp	r0, #0
100004ee:	d1e9      	bne.n	100004c4 <game_update+0xe8>
100004f0:	685e      	ldr	r6, [r3, #4]
100004f2:	7818      	ldrb	r0, [r3, #0]
100004f4:	785c      	ldrb	r4, [r3, #1]
100004f6:	2e00      	cmp	r6, #0
100004f8:	d1ed      	bne.n	100004d6 <game_update+0xfa>
100004fa:	468c      	mov	ip, r1
100004fc:	0016      	movs	r6, r2
100004fe:	705a      	strb	r2, [r3, #1]
10000500:	7019      	strb	r1, [r3, #0]
10000502:	4663      	mov	r3, ip
10000504:	2202      	movs	r2, #2
10000506:	011b      	lsls	r3, r3, #4
10000508:	18eb      	adds	r3, r5, r3
1000050a:	559a      	strb	r2, [r3, r6]
1000050c:	2300      	movs	r3, #0
1000050e:	0100      	lsls	r0, r0, #4
10000510:	1828      	adds	r0, r5, r0
10000512:	5503      	strb	r3, [r0, r4]
10000514:	4653      	mov	r3, sl
10000516:	0028      	movs	r0, r5
10000518:	6959      	ldr	r1, [r3, #20]
1000051a:	f000 fa79 	bl	10000a10 <board_to_bytes>
1000051e:	2001      	movs	r0, #1
10000520:	e7be      	b.n	100004a0 <game_update+0xc4>
10000522:	1c57      	adds	r7, r2, #1
10000524:	000c      	movs	r4, r1
10000526:	b2ff      	uxtb	r7, r7
10000528:	e774      	b.n	10000414 <game_update+0x38>
1000052a:	1e57      	subs	r7, r2, #1
1000052c:	000c      	movs	r4, r1
1000052e:	b2ff      	uxtb	r7, r7
10000530:	e770      	b.n	10000414 <game_update+0x38>
10000532:	1c4c      	adds	r4, r1, #1
10000534:	0017      	movs	r7, r2
10000536:	b2e4      	uxtb	r4, r4
10000538:	e76c      	b.n	10000414 <game_update+0x38>
1000053a:	1c6e      	adds	r6, r5, #1
1000053c:	36ff      	adds	r6, #255	; 0xff
1000053e:	46b1      	mov	r9, r6
10000540:	6876      	ldr	r6, [r6, #4]
10000542:	2e00      	cmp	r6, #0
10000544:	d1fb      	bne.n	1000053e <game_update+0x162>
10000546:	2008      	movs	r0, #8
10000548:	f002 fb52 	bl	10002bf0 <__wrap_malloc>
1000054c:	464b      	mov	r3, r9
1000054e:	6058      	str	r0, [r3, #4]
10000550:	6046      	str	r6, [r0, #4]
10000552:	881b      	ldrh	r3, [r3, #0]
10000554:	2101      	movs	r1, #1
10000556:	8003      	strh	r3, [r0, #0]
10000558:	2382      	movs	r3, #130	; 0x82
1000055a:	2002      	movs	r0, #2
1000055c:	005b      	lsls	r3, r3, #1
1000055e:	58ea      	ldr	r2, [r5, r3]
10000560:	1c6b      	adds	r3, r5, #1
10000562:	4680      	mov	r8, r0
10000564:	33ff      	adds	r3, #255	; 0xff
10000566:	2a00      	cmp	r2, #0
10000568:	d10c      	bne.n	10000584 <game_update+0x1a8>
1000056a:	e014      	b.n	10000596 <game_update+0x1ba>
1000056c:	4643      	mov	r3, r8
1000056e:	0124      	lsls	r4, r4, #4
10000570:	192c      	adds	r4, r5, r4
10000572:	55e3      	strb	r3, [r4, r7]
10000574:	6851      	ldr	r1, [r2, #4]
10000576:	2900      	cmp	r1, #0
10000578:	d00d      	beq.n	10000596 <game_update+0x1ba>
1000057a:	0013      	movs	r3, r2
1000057c:	0037      	movs	r7, r6
1000057e:	000a      	movs	r2, r1
10000580:	0004      	movs	r4, r0
10000582:	2100      	movs	r1, #0
10000584:	7818      	ldrb	r0, [r3, #0]
10000586:	785e      	ldrb	r6, [r3, #1]
10000588:	701c      	strb	r4, [r3, #0]
1000058a:	705f      	strb	r7, [r3, #1]
1000058c:	2900      	cmp	r1, #0
1000058e:	d1ed      	bne.n	1000056c <game_update+0x190>
10000590:	6851      	ldr	r1, [r2, #4]
10000592:	2900      	cmp	r1, #0
10000594:	d1f1      	bne.n	1000057a <game_update+0x19e>
10000596:	210e      	movs	r1, #14
10000598:	2001      	movs	r0, #1
1000059a:	f000 fb5f 	bl	10000c5c <rand_uint16>
1000059e:	0004      	movs	r4, r0
100005a0:	210e      	movs	r1, #14
100005a2:	2001      	movs	r0, #1
100005a4:	f000 fb5a 	bl	10000c5c <rand_uint16>
100005a8:	b2e4      	uxtb	r4, r4
100005aa:	0124      	lsls	r4, r4, #4
100005ac:	b2c0      	uxtb	r0, r0
100005ae:	192c      	adds	r4, r5, r4
100005b0:	5c22      	ldrb	r2, [r4, r0]
100005b2:	2a00      	cmp	r2, #0
100005b4:	d1ef      	bne.n	10000596 <game_update+0x1ba>
100005b6:	3203      	adds	r2, #3
100005b8:	5422      	strb	r2, [r4, r0]
100005ba:	e7ab      	b.n	10000514 <game_update+0x138>
100005bc:	1c6b      	adds	r3, r5, #1
100005be:	0014      	movs	r4, r2
100005c0:	0008      	movs	r0, r1
100005c2:	003a      	movs	r2, r7
100005c4:	4661      	mov	r1, ip
100005c6:	33ff      	adds	r3, #255	; 0xff
100005c8:	e799      	b.n	100004fe <game_update+0x122>
100005ca:	46c0      	nop			; (mov r8, r8)
100005cc:	20001094 	.word	0x20001094
100005d0:	20001303 	.word	0x20001303

100005d4 <init_snake_game>:
100005d4:	2202      	movs	r2, #2
100005d6:	b5f8      	push	{r3, r4, r5, r6, r7, lr}
100005d8:	4c4c      	ldr	r4, [pc, #304]	; (1000070c <init_snake_game+0x138>)
100005da:	32ff      	adds	r2, #255	; 0xff
100005dc:	4694      	mov	ip, r2
100005de:	0023      	movs	r3, r4
100005e0:	2100      	movs	r1, #0
100005e2:	2001      	movs	r0, #1
100005e4:	2200      	movs	r2, #0
100005e6:	4f4a      	ldr	r7, [pc, #296]	; (10000710 <init_snake_game+0x13c>)
100005e8:	e013      	b.n	10000612 <init_snake_game+0x3e>
100005ea:	290f      	cmp	r1, #15
100005ec:	d01f      	beq.n	1000062e <init_snake_game+0x5a>
100005ee:	2600      	movs	r6, #0
100005f0:	705a      	strb	r2, [r3, #1]
100005f2:	709a      	strb	r2, [r3, #2]
100005f4:	70da      	strb	r2, [r3, #3]
100005f6:	711a      	strb	r2, [r3, #4]
100005f8:	715a      	strb	r2, [r3, #5]
100005fa:	719a      	strb	r2, [r3, #6]
100005fc:	71da      	strb	r2, [r3, #7]
100005fe:	721a      	strb	r2, [r3, #8]
10000600:	725a      	strb	r2, [r3, #9]
10000602:	729a      	strb	r2, [r3, #10]
10000604:	72da      	strb	r2, [r3, #11]
10000606:	731a      	strb	r2, [r3, #12]
10000608:	735a      	strb	r2, [r3, #13]
1000060a:	3101      	adds	r1, #1
1000060c:	3310      	adds	r3, #16
1000060e:	73ae      	strb	r6, [r5, #14]
10000610:	73e8      	strb	r0, [r5, #15]
10000612:	001d      	movs	r5, r3
10000614:	7018      	strb	r0, [r3, #0]
10000616:	2900      	cmp	r1, #0
10000618:	d1e7      	bne.n	100005ea <init_snake_game+0x16>
1000061a:	4661      	mov	r1, ip
1000061c:	2601      	movs	r6, #1
1000061e:	8061      	strh	r1, [r4, #2]
10000620:	81a1      	strh	r1, [r4, #12]
10000622:	7060      	strb	r0, [r4, #1]
10000624:	2101      	movs	r1, #1
10000626:	6067      	str	r7, [r4, #4]
10000628:	60a7      	str	r7, [r4, #8]
1000062a:	3310      	adds	r3, #16
1000062c:	e7ef      	b.n	1000060e <init_snake_game+0x3a>
1000062e:	23f1      	movs	r3, #241	; 0xf1
10000630:	2202      	movs	r2, #2
10000632:	54e0      	strb	r0, [r4, r3]
10000634:	32ff      	adds	r2, #255	; 0xff
10000636:	3301      	adds	r3, #1
10000638:	52e2      	strh	r2, [r4, r3]
1000063a:	4b35      	ldr	r3, [pc, #212]	; (10000710 <init_snake_game+0x13c>)
1000063c:	3a0d      	subs	r2, #13
1000063e:	50a3      	str	r3, [r4, r2]
10000640:	3204      	adds	r2, #4
10000642:	50a3      	str	r3, [r4, r2]
10000644:	3204      	adds	r2, #4
10000646:	50a3      	str	r3, [r4, r2]
10000648:	210e      	movs	r1, #14
1000064a:	2001      	movs	r0, #1
1000064c:	f000 fb06 	bl	10000c5c <rand_uint16>
10000650:	0005      	movs	r5, r0
10000652:	210e      	movs	r1, #14
10000654:	2001      	movs	r0, #1
10000656:	f000 fb01 	bl	10000c5c <rand_uint16>
1000065a:	b2ed      	uxtb	r5, r5
1000065c:	012d      	lsls	r5, r5, #4
1000065e:	b2c0      	uxtb	r0, r0
10000660:	1965      	adds	r5, r4, r5
10000662:	5c2a      	ldrb	r2, [r5, r0]
10000664:	2a00      	cmp	r2, #0
10000666:	d1ef      	bne.n	10000648 <init_snake_game+0x74>
10000668:	2103      	movs	r1, #3
1000066a:	2382      	movs	r3, #130	; 0x82
1000066c:	5429      	strb	r1, [r5, r0]
1000066e:	2602      	movs	r6, #2
10000670:	2580      	movs	r5, #128	; 0x80
10000672:	005b      	lsls	r3, r3, #1
10000674:	50e2      	str	r2, [r4, r3]
10000676:	006d      	lsls	r5, r5, #1
10000678:	36ff      	adds	r6, #255	; 0xff
1000067a:	210e      	movs	r1, #14
1000067c:	2001      	movs	r0, #1
1000067e:	f000 faed 	bl	10000c5c <rand_uint16>
10000682:	210e      	movs	r1, #14
10000684:	5560      	strb	r0, [r4, r5]
10000686:	2001      	movs	r0, #1
10000688:	f000 fae8 	bl	10000c5c <rand_uint16>
1000068c:	b2c0      	uxtb	r0, r0
1000068e:	55a0      	strb	r0, [r4, r6]
10000690:	5d63      	ldrb	r3, [r4, r5]
10000692:	011b      	lsls	r3, r3, #4
10000694:	18e3      	adds	r3, r4, r3
10000696:	5c1a      	ldrb	r2, [r3, r0]
10000698:	2a00      	cmp	r2, #0
1000069a:	d1ee      	bne.n	1000067a <init_snake_game+0xa6>
1000069c:	3202      	adds	r2, #2
1000069e:	541a      	strb	r2, [r3, r0]
100006a0:	2103      	movs	r1, #3
100006a2:	2000      	movs	r0, #0
100006a4:	f000 fada 	bl	10000c5c <rand_uint16>
100006a8:	2384      	movs	r3, #132	; 0x84
100006aa:	005b      	lsls	r3, r3, #1
100006ac:	54e0      	strb	r0, [r4, r3]
100006ae:	4c19      	ldr	r4, [pc, #100]	; (10000714 <init_snake_game+0x140>)
100006b0:	2201      	movs	r2, #1
100006b2:	0023      	movs	r3, r4
100006b4:	2108      	movs	r1, #8
100006b6:	2000      	movs	r0, #0
100006b8:	f000 fc34 	bl	10000f24 <gpio_set_irq_enabled_with_callback>
100006bc:	0023      	movs	r3, r4
100006be:	2201      	movs	r2, #1
100006c0:	2108      	movs	r1, #8
100006c2:	2001      	movs	r0, #1
100006c4:	f000 fc2e 	bl	10000f24 <gpio_set_irq_enabled_with_callback>
100006c8:	0023      	movs	r3, r4
100006ca:	2201      	movs	r2, #1
100006cc:	2108      	movs	r1, #8
100006ce:	2002      	movs	r0, #2
100006d0:	f000 fc28 	bl	10000f24 <gpio_set_irq_enabled_with_callback>
100006d4:	0023      	movs	r3, r4
100006d6:	2201      	movs	r2, #1
100006d8:	2108      	movs	r1, #8
100006da:	2003      	movs	r0, #3
100006dc:	f000 fc22 	bl	10000f24 <gpio_set_irq_enabled_with_callback>
100006e0:	2201      	movs	r2, #1
100006e2:	2100      	movs	r1, #0
100006e4:	2000      	movs	r0, #0
100006e6:	f000 fbe1 	bl	10000eac <gpio_set_pulls>
100006ea:	2201      	movs	r2, #1
100006ec:	2100      	movs	r1, #0
100006ee:	2001      	movs	r0, #1
100006f0:	f000 fbdc 	bl	10000eac <gpio_set_pulls>
100006f4:	2201      	movs	r2, #1
100006f6:	2100      	movs	r1, #0
100006f8:	2002      	movs	r0, #2
100006fa:	f000 fbd7 	bl	10000eac <gpio_set_pulls>
100006fe:	2201      	movs	r2, #1
10000700:	2100      	movs	r1, #0
10000702:	2003      	movs	r0, #3
10000704:	f000 fbd2 	bl	10000eac <gpio_set_pulls>
10000708:	bdf8      	pop	{r3, r4, r5, r6, r7, pc}
1000070a:	46c0      	nop			; (mov r8, r8)
1000070c:	20001094 	.word	0x20001094
10000710:	01010101 	.word	0x01010101
10000714:	10000389 	.word	0x10000389

10000718 <run_snake_game>:
10000718:	b570      	push	{r4, r5, r6, lr}
1000071a:	0006      	movs	r6, r0
1000071c:	b09a      	sub	sp, #104	; 0x68
1000071e:	ac12      	add	r4, sp, #72	; 0x48
10000720:	9405      	str	r4, [sp, #20]
10000722:	f001 f9ab 	bl	10001a7c <alarm_pool_get_default>
10000726:	22fa      	movs	r2, #250	; 0xfa
10000728:	3601      	adds	r6, #1
1000072a:	0633      	lsls	r3, r6, #24
1000072c:	1b9b      	subs	r3, r3, r6
1000072e:	019b      	lsls	r3, r3, #6
10000730:	199b      	adds	r3, r3, r6
10000732:	005b      	lsls	r3, r3, #1
10000734:	0005      	movs	r5, r0
10000736:	1998      	adds	r0, r3, r6
10000738:	0040      	lsls	r0, r0, #1
1000073a:	2300      	movs	r3, #0
1000073c:	0092      	lsls	r2, r2, #2
1000073e:	17c1      	asrs	r1, r0, #31
10000740:	f002 f9f4 	bl	10002b2c <__wrap___aeabi_lmul>
10000744:	000b      	movs	r3, r1
10000746:	a906      	add	r1, sp, #24
10000748:	9102      	str	r1, [sp, #8]
1000074a:	4914      	ldr	r1, [pc, #80]	; (1000079c <run_snake_game+0x84>)
1000074c:	0002      	movs	r2, r0
1000074e:	9401      	str	r4, [sp, #4]
10000750:	0028      	movs	r0, r5
10000752:	9100      	str	r1, [sp, #0]
10000754:	f001 f996 	bl	10001a84 <alarm_pool_add_repeating_timer_us>
10000758:	4c11      	ldr	r4, [pc, #68]	; (100007a0 <run_snake_game+0x88>)
1000075a:	7823      	ldrb	r3, [r4, #0]
1000075c:	2b00      	cmp	r3, #0
1000075e:	d105      	bne.n	1000076c <run_snake_game+0x54>
10000760:	9805      	ldr	r0, [sp, #20]
10000762:	f000 f903 	bl	1000096c <matrix_print_frame>
10000766:	7823      	ldrb	r3, [r4, #0]
10000768:	2b00      	cmp	r3, #0
1000076a:	d0f9      	beq.n	10000760 <run_snake_game+0x48>
1000076c:	f001 f986 	bl	10001a7c <alarm_pool_get_default>
10000770:	ab0c      	add	r3, sp, #48	; 0x30
10000772:	9302      	str	r3, [sp, #8]
10000774:	ab05      	add	r3, sp, #20
10000776:	9301      	str	r3, [sp, #4]
10000778:	4b0a      	ldr	r3, [pc, #40]	; (100007a4 <run_snake_game+0x8c>)
1000077a:	4a0b      	ldr	r2, [pc, #44]	; (100007a8 <run_snake_game+0x90>)
1000077c:	9300      	str	r3, [sp, #0]
1000077e:	2301      	movs	r3, #1
10000780:	425b      	negs	r3, r3
10000782:	f001 f97f 	bl	10001a84 <alarm_pool_add_repeating_timer_us>
10000786:	2300      	movs	r3, #0
10000788:	7023      	strb	r3, [r4, #0]
1000078a:	9805      	ldr	r0, [sp, #20]
1000078c:	f000 f8ee 	bl	1000096c <matrix_print_frame>
10000790:	7823      	ldrb	r3, [r4, #0]
10000792:	2b00      	cmp	r3, #0
10000794:	d0f9      	beq.n	1000078a <run_snake_game+0x72>
10000796:	b01a      	add	sp, #104	; 0x68
10000798:	bd70      	pop	{r4, r5, r6, pc}
1000079a:	46c0      	nop			; (mov r8, r8)
1000079c:	100003dd 	.word	0x100003dd
100007a0:	20001303 	.word	0x20001303
100007a4:	1000033d 	.word	0x1000033d
100007a8:	fff85ee0 	.word	0xfff85ee0

100007ac <sr_init>:
100007ac:	b570      	push	{r4, r5, r6, lr}
100007ae:	0004      	movs	r4, r0
100007b0:	7800      	ldrb	r0, [r0, #0]
100007b2:	281c      	cmp	r0, #28
100007b4:	d83f      	bhi.n	10000836 <sr_init+0x8a>
100007b6:	2601      	movs	r6, #1
100007b8:	f000 fc16 	bl	10000fe8 <gpio_init>
100007bc:	0032      	movs	r2, r6
100007be:	7823      	ldrb	r3, [r4, #0]
100007c0:	25d0      	movs	r5, #208	; 0xd0
100007c2:	409a      	lsls	r2, r3
100007c4:	062d      	lsls	r5, r5, #24
100007c6:	626a      	str	r2, [r5, #36]	; 0x24
100007c8:	61aa      	str	r2, [r5, #24]
100007ca:	78e0      	ldrb	r0, [r4, #3]
100007cc:	281c      	cmp	r0, #28
100007ce:	d832      	bhi.n	10000836 <sr_init+0x8a>
100007d0:	f000 fc0a 	bl	10000fe8 <gpio_init>
100007d4:	0032      	movs	r2, r6
100007d6:	78e3      	ldrb	r3, [r4, #3]
100007d8:	409a      	lsls	r2, r3
100007da:	626a      	str	r2, [r5, #36]	; 0x24
100007dc:	61aa      	str	r2, [r5, #24]
100007de:	78a0      	ldrb	r0, [r4, #2]
100007e0:	281c      	cmp	r0, #28
100007e2:	d921      	bls.n	10000828 <sr_init+0x7c>
100007e4:	23ff      	movs	r3, #255	; 0xff
100007e6:	70a3      	strb	r3, [r4, #2]
100007e8:	7860      	ldrb	r0, [r4, #1]
100007ea:	281c      	cmp	r0, #28
100007ec:	d912      	bls.n	10000814 <sr_init+0x68>
100007ee:	23ff      	movs	r3, #255	; 0xff
100007f0:	7063      	strb	r3, [r4, #1]
100007f2:	7920      	ldrb	r0, [r4, #4]
100007f4:	281c      	cmp	r0, #28
100007f6:	d903      	bls.n	10000800 <sr_init+0x54>
100007f8:	23ff      	movs	r3, #255	; 0xff
100007fa:	7123      	strb	r3, [r4, #4]
100007fc:	2000      	movs	r0, #0
100007fe:	bd70      	pop	{r4, r5, r6, pc}
10000800:	f000 fbf2 	bl	10000fe8 <gpio_init>
10000804:	2301      	movs	r3, #1
10000806:	7922      	ldrb	r2, [r4, #4]
10000808:	4093      	lsls	r3, r2
1000080a:	22d0      	movs	r2, #208	; 0xd0
1000080c:	0612      	lsls	r2, r2, #24
1000080e:	6253      	str	r3, [r2, #36]	; 0x24
10000810:	6153      	str	r3, [r2, #20]
10000812:	e7f3      	b.n	100007fc <sr_init+0x50>
10000814:	f000 fbe8 	bl	10000fe8 <gpio_init>
10000818:	2301      	movs	r3, #1
1000081a:	7862      	ldrb	r2, [r4, #1]
1000081c:	4093      	lsls	r3, r2
1000081e:	22d0      	movs	r2, #208	; 0xd0
10000820:	0612      	lsls	r2, r2, #24
10000822:	6253      	str	r3, [r2, #36]	; 0x24
10000824:	6193      	str	r3, [r2, #24]
10000826:	e7e4      	b.n	100007f2 <sr_init+0x46>
10000828:	f000 fbde 	bl	10000fe8 <gpio_init>
1000082c:	78a3      	ldrb	r3, [r4, #2]
1000082e:	409e      	lsls	r6, r3
10000830:	626e      	str	r6, [r5, #36]	; 0x24
10000832:	61ae      	str	r6, [r5, #24]
10000834:	e7d8      	b.n	100007e8 <sr_init+0x3c>
10000836:	2001      	movs	r0, #1
10000838:	4240      	negs	r0, r0
1000083a:	e7e0      	b.n	100007fe <sr_init+0x52>

1000083c <sr_cascaded_regs_write_bytes>:
1000083c:	b5f0      	push	{r4, r5, r6, r7, lr}
1000083e:	464e      	mov	r6, r9
10000840:	4645      	mov	r5, r8
10000842:	46de      	mov	lr, fp
10000844:	4657      	mov	r7, sl
10000846:	b5e0      	push	{r5, r6, r7, lr}
10000848:	b083      	sub	sp, #12
1000084a:	000e      	movs	r6, r1
1000084c:	0015      	movs	r5, r2
1000084e:	9001      	str	r0, [sp, #4]
10000850:	2900      	cmp	r1, #0
10000852:	d078      	beq.n	10000946 <sr_cascaded_regs_write_bytes+0x10a>
10000854:	0002      	movs	r2, r0
10000856:	7803      	ldrb	r3, [r0, #0]
10000858:	2001      	movs	r0, #1
1000085a:	0001      	movs	r1, r0
1000085c:	4099      	lsls	r1, r3
1000085e:	78d3      	ldrb	r3, [r2, #3]
10000860:	2202      	movs	r2, #2
10000862:	4098      	lsls	r0, r3
10000864:	2301      	movs	r3, #1
10000866:	469b      	mov	fp, r3
10000868:	23d0      	movs	r3, #208	; 0xd0
1000086a:	4692      	mov	sl, r2
1000086c:	3202      	adds	r2, #2
1000086e:	4691      	mov	r9, r2
10000870:	3204      	adds	r2, #4
10000872:	4690      	mov	r8, r2
10000874:	3208      	adds	r2, #8
10000876:	2400      	movs	r4, #0
10000878:	4694      	mov	ip, r2
1000087a:	061b      	lsls	r3, r3, #24
1000087c:	e02f      	b.n	100008de <sr_cascaded_regs_write_bytes+0xa2>
1000087e:	4657      	mov	r7, sl
10000880:	6199      	str	r1, [r3, #24]
10000882:	6158      	str	r0, [r3, #20]
10000884:	6198      	str	r0, [r3, #24]
10000886:	4217      	tst	r7, r2
10000888:	d133      	bne.n	100008f2 <sr_cascaded_regs_write_bytes+0xb6>
1000088a:	464f      	mov	r7, r9
1000088c:	6199      	str	r1, [r3, #24]
1000088e:	6158      	str	r0, [r3, #20]
10000890:	6198      	str	r0, [r3, #24]
10000892:	4217      	tst	r7, r2
10000894:	d133      	bne.n	100008fe <sr_cascaded_regs_write_bytes+0xc2>
10000896:	4647      	mov	r7, r8
10000898:	6199      	str	r1, [r3, #24]
1000089a:	6158      	str	r0, [r3, #20]
1000089c:	6198      	str	r0, [r3, #24]
1000089e:	4217      	tst	r7, r2
100008a0:	d133      	bne.n	1000090a <sr_cascaded_regs_write_bytes+0xce>
100008a2:	4667      	mov	r7, ip
100008a4:	6199      	str	r1, [r3, #24]
100008a6:	6158      	str	r0, [r3, #20]
100008a8:	6198      	str	r0, [r3, #24]
100008aa:	4217      	tst	r7, r2
100008ac:	d133      	bne.n	10000916 <sr_cascaded_regs_write_bytes+0xda>
100008ae:	2720      	movs	r7, #32
100008b0:	6199      	str	r1, [r3, #24]
100008b2:	6158      	str	r0, [r3, #20]
100008b4:	6198      	str	r0, [r3, #24]
100008b6:	4217      	tst	r7, r2
100008b8:	d133      	bne.n	10000922 <sr_cascaded_regs_write_bytes+0xe6>
100008ba:	2740      	movs	r7, #64	; 0x40
100008bc:	6199      	str	r1, [r3, #24]
100008be:	6158      	str	r0, [r3, #20]
100008c0:	6198      	str	r0, [r3, #24]
100008c2:	4217      	tst	r7, r2
100008c4:	d133      	bne.n	1000092e <sr_cascaded_regs_write_bytes+0xf2>
100008c6:	6199      	str	r1, [r3, #24]
100008c8:	09d2      	lsrs	r2, r2, #7
100008ca:	6158      	str	r0, [r3, #20]
100008cc:	6198      	str	r0, [r3, #24]
100008ce:	d133      	bne.n	10000938 <sr_cascaded_regs_write_bytes+0xfc>
100008d0:	3401      	adds	r4, #1
100008d2:	b2e2      	uxtb	r2, r4
100008d4:	6199      	str	r1, [r3, #24]
100008d6:	6158      	str	r0, [r3, #20]
100008d8:	6198      	str	r0, [r3, #24]
100008da:	4296      	cmp	r6, r2
100008dc:	d933      	bls.n	10000946 <sr_cascaded_regs_write_bytes+0x10a>
100008de:	465f      	mov	r7, fp
100008e0:	5d2a      	ldrb	r2, [r5, r4]
100008e2:	4217      	tst	r7, r2
100008e4:	d0cb      	beq.n	1000087e <sr_cascaded_regs_write_bytes+0x42>
100008e6:	4657      	mov	r7, sl
100008e8:	6159      	str	r1, [r3, #20]
100008ea:	6158      	str	r0, [r3, #20]
100008ec:	6198      	str	r0, [r3, #24]
100008ee:	4217      	tst	r7, r2
100008f0:	d0cb      	beq.n	1000088a <sr_cascaded_regs_write_bytes+0x4e>
100008f2:	464f      	mov	r7, r9
100008f4:	6159      	str	r1, [r3, #20]
100008f6:	6158      	str	r0, [r3, #20]
100008f8:	6198      	str	r0, [r3, #24]
100008fa:	4217      	tst	r7, r2
100008fc:	d0cb      	beq.n	10000896 <sr_cascaded_regs_write_bytes+0x5a>
100008fe:	4647      	mov	r7, r8
10000900:	6159      	str	r1, [r3, #20]
10000902:	6158      	str	r0, [r3, #20]
10000904:	6198      	str	r0, [r3, #24]
10000906:	4217      	tst	r7, r2
10000908:	d0cb      	beq.n	100008a2 <sr_cascaded_regs_write_bytes+0x66>
1000090a:	4667      	mov	r7, ip
1000090c:	6159      	str	r1, [r3, #20]
1000090e:	6158      	str	r0, [r3, #20]
10000910:	6198      	str	r0, [r3, #24]
10000912:	4217      	tst	r7, r2
10000914:	d0cb      	beq.n	100008ae <sr_cascaded_regs_write_bytes+0x72>
10000916:	2720      	movs	r7, #32
10000918:	6159      	str	r1, [r3, #20]
1000091a:	6158      	str	r0, [r3, #20]
1000091c:	6198      	str	r0, [r3, #24]
1000091e:	4217      	tst	r7, r2
10000920:	d0cb      	beq.n	100008ba <sr_cascaded_regs_write_bytes+0x7e>
10000922:	2740      	movs	r7, #64	; 0x40
10000924:	6159      	str	r1, [r3, #20]
10000926:	6158      	str	r0, [r3, #20]
10000928:	6198      	str	r0, [r3, #24]
1000092a:	4217      	tst	r7, r2
1000092c:	d0cb      	beq.n	100008c6 <sr_cascaded_regs_write_bytes+0x8a>
1000092e:	6159      	str	r1, [r3, #20]
10000930:	09d2      	lsrs	r2, r2, #7
10000932:	6158      	str	r0, [r3, #20]
10000934:	6198      	str	r0, [r3, #24]
10000936:	d0cb      	beq.n	100008d0 <sr_cascaded_regs_write_bytes+0x94>
10000938:	3401      	adds	r4, #1
1000093a:	b2e2      	uxtb	r2, r4
1000093c:	6159      	str	r1, [r3, #20]
1000093e:	6158      	str	r0, [r3, #20]
10000940:	6198      	str	r0, [r3, #24]
10000942:	4296      	cmp	r6, r2
10000944:	d8cb      	bhi.n	100008de <sr_cascaded_regs_write_bytes+0xa2>
10000946:	2301      	movs	r3, #1
10000948:	9901      	ldr	r1, [sp, #4]
1000094a:	19ad      	adds	r5, r5, r6
1000094c:	788a      	ldrb	r2, [r1, #2]
1000094e:	3d01      	subs	r5, #1
10000950:	4093      	lsls	r3, r2
10000952:	22d0      	movs	r2, #208	; 0xd0
10000954:	0612      	lsls	r2, r2, #24
10000956:	6153      	str	r3, [r2, #20]
10000958:	6193      	str	r3, [r2, #24]
1000095a:	782b      	ldrb	r3, [r5, #0]
1000095c:	714b      	strb	r3, [r1, #5]
1000095e:	b003      	add	sp, #12
10000960:	bcf0      	pop	{r4, r5, r6, r7}
10000962:	46bb      	mov	fp, r7
10000964:	46b2      	mov	sl, r6
10000966:	46a9      	mov	r9, r5
10000968:	46a0      	mov	r8, r4
1000096a:	bdf0      	pop	{r4, r5, r6, r7, pc}

1000096c <matrix_print_frame>:
1000096c:	b5f0      	push	{r4, r5, r6, r7, lr}
1000096e:	46c6      	mov	lr, r8
10000970:	0006      	movs	r6, r0
10000972:	b500      	push	{lr}
10000974:	2800      	cmp	r0, #0
10000976:	d03e      	beq.n	100009f6 <matrix_print_frame+0x8a>
10000978:	4b20      	ldr	r3, [pc, #128]	; (100009fc <matrix_print_frame+0x90>)
1000097a:	4d21      	ldr	r5, [pc, #132]	; (10000a00 <matrix_print_frame+0x94>)
1000097c:	4c21      	ldr	r4, [pc, #132]	; (10000a04 <matrix_print_frame+0x98>)
1000097e:	802b      	strh	r3, [r5, #0]
10000980:	2300      	movs	r3, #0
10000982:	7023      	strb	r3, [r4, #0]
10000984:	4b20      	ldr	r3, [pc, #128]	; (10000a08 <matrix_print_frame+0x9c>)
10000986:	4f21      	ldr	r7, [pc, #132]	; (10000a0c <matrix_print_frame+0xa0>)
10000988:	4698      	mov	r8, r3
1000098a:	002a      	movs	r2, r5
1000098c:	2102      	movs	r1, #2
1000098e:	6838      	ldr	r0, [r7, #0]
10000990:	f7ff ff54 	bl	1000083c <sr_cascaded_regs_write_bytes>
10000994:	4643      	mov	r3, r8
10000996:	7822      	ldrb	r2, [r4, #0]
10000998:	6818      	ldr	r0, [r3, #0]
1000099a:	0052      	lsls	r2, r2, #1
1000099c:	2102      	movs	r1, #2
1000099e:	18b2      	adds	r2, r6, r2
100009a0:	f7ff ff4c 	bl	1000083c <sr_cascaded_regs_write_bytes>
100009a4:	786b      	ldrb	r3, [r5, #1]
100009a6:	2001      	movs	r0, #1
100009a8:	085b      	lsrs	r3, r3, #1
100009aa:	706b      	strb	r3, [r5, #1]
100009ac:	f001 f9dc 	bl	10001d68 <sleep_ms>
100009b0:	7823      	ldrb	r3, [r4, #0]
100009b2:	3301      	adds	r3, #1
100009b4:	b2db      	uxtb	r3, r3
100009b6:	7023      	strb	r3, [r4, #0]
100009b8:	2b07      	cmp	r3, #7
100009ba:	d9e6      	bls.n	1000098a <matrix_print_frame+0x1e>
100009bc:	2380      	movs	r3, #128	; 0x80
100009be:	802b      	strh	r3, [r5, #0]
100009c0:	3b78      	subs	r3, #120	; 0x78
100009c2:	7023      	strb	r3, [r4, #0]
100009c4:	002a      	movs	r2, r5
100009c6:	2102      	movs	r1, #2
100009c8:	6838      	ldr	r0, [r7, #0]
100009ca:	f7ff ff37 	bl	1000083c <sr_cascaded_regs_write_bytes>
100009ce:	4643      	mov	r3, r8
100009d0:	7822      	ldrb	r2, [r4, #0]
100009d2:	6818      	ldr	r0, [r3, #0]
100009d4:	0052      	lsls	r2, r2, #1
100009d6:	2102      	movs	r1, #2
100009d8:	18b2      	adds	r2, r6, r2
100009da:	f7ff ff2f 	bl	1000083c <sr_cascaded_regs_write_bytes>
100009de:	782b      	ldrb	r3, [r5, #0]
100009e0:	2001      	movs	r0, #1
100009e2:	085b      	lsrs	r3, r3, #1
100009e4:	702b      	strb	r3, [r5, #0]
100009e6:	f001 f9bf 	bl	10001d68 <sleep_ms>
100009ea:	7823      	ldrb	r3, [r4, #0]
100009ec:	3301      	adds	r3, #1
100009ee:	b2db      	uxtb	r3, r3
100009f0:	7023      	strb	r3, [r4, #0]
100009f2:	2b0f      	cmp	r3, #15
100009f4:	d9e6      	bls.n	100009c4 <matrix_print_frame+0x58>
100009f6:	bc80      	pop	{r7}
100009f8:	46b8      	mov	r8, r7
100009fa:	bdf0      	pop	{r4, r5, r6, r7, pc}
100009fc:	ffff8000 	.word	0xffff8000
10000a00:	200011e0 	.word	0x200011e0
10000a04:	20001305 	.word	0x20001305
10000a08:	200011a0 	.word	0x200011a0
10000a0c:	200011a4 	.word	0x200011a4

10000a10 <board_to_bytes>:
10000a10:	237f      	movs	r3, #127	; 0x7f
10000a12:	b5f0      	push	{r4, r5, r6, r7, lr}
10000a14:	4657      	mov	r7, sl
10000a16:	464e      	mov	r6, r9
10000a18:	4645      	mov	r5, r8
10000a1a:	46de      	mov	lr, fp
10000a1c:	469a      	mov	sl, r3
10000a1e:	3bff      	subs	r3, #255	; 0xff
10000a20:	4699      	mov	r9, r3
10000a22:	1c42      	adds	r2, r0, #1
10000a24:	33c0      	adds	r3, #192	; 0xc0
10000a26:	b5e0      	push	{r5, r6, r7, lr}
10000a28:	4698      	mov	r8, r3
10000a2a:	469c      	mov	ip, r3
10000a2c:	2720      	movs	r7, #32
10000a2e:	2620      	movs	r6, #32
10000a30:	2510      	movs	r5, #16
10000a32:	32ff      	adds	r2, #255	; 0xff
10000a34:	e068      	b.n	10000b08 <board_to_bytes+0xf8>
10000a36:	464c      	mov	r4, r9
10000a38:	780b      	ldrb	r3, [r1, #0]
10000a3a:	4323      	orrs	r3, r4
10000a3c:	b2db      	uxtb	r3, r3
10000a3e:	700b      	strb	r3, [r1, #0]
10000a40:	7844      	ldrb	r4, [r0, #1]
10000a42:	2c00      	cmp	r4, #0
10000a44:	d06a      	beq.n	10000b1c <board_to_bytes+0x10c>
10000a46:	4664      	mov	r4, ip
10000a48:	4323      	orrs	r3, r4
10000a4a:	b2db      	uxtb	r3, r3
10000a4c:	700b      	strb	r3, [r1, #0]
10000a4e:	7884      	ldrb	r4, [r0, #2]
10000a50:	2c00      	cmp	r4, #0
10000a52:	d069      	beq.n	10000b28 <board_to_bytes+0x118>
10000a54:	4333      	orrs	r3, r6
10000a56:	b2db      	uxtb	r3, r3
10000a58:	700b      	strb	r3, [r1, #0]
10000a5a:	78c4      	ldrb	r4, [r0, #3]
10000a5c:	2c00      	cmp	r4, #0
10000a5e:	d068      	beq.n	10000b32 <board_to_bytes+0x122>
10000a60:	2410      	movs	r4, #16
10000a62:	4323      	orrs	r3, r4
10000a64:	b2db      	uxtb	r3, r3
10000a66:	700b      	strb	r3, [r1, #0]
10000a68:	7904      	ldrb	r4, [r0, #4]
10000a6a:	2c00      	cmp	r4, #0
10000a6c:	d066      	beq.n	10000b3c <board_to_bytes+0x12c>
10000a6e:	2408      	movs	r4, #8
10000a70:	4323      	orrs	r3, r4
10000a72:	700b      	strb	r3, [r1, #0]
10000a74:	7944      	ldrb	r4, [r0, #5]
10000a76:	2c00      	cmp	r4, #0
10000a78:	d066      	beq.n	10000b48 <board_to_bytes+0x138>
10000a7a:	2404      	movs	r4, #4
10000a7c:	4323      	orrs	r3, r4
10000a7e:	700b      	strb	r3, [r1, #0]
10000a80:	7984      	ldrb	r4, [r0, #6]
10000a82:	2c00      	cmp	r4, #0
10000a84:	d066      	beq.n	10000b54 <board_to_bytes+0x144>
10000a86:	2402      	movs	r4, #2
10000a88:	4323      	orrs	r3, r4
10000a8a:	700b      	strb	r3, [r1, #0]
10000a8c:	79c4      	ldrb	r4, [r0, #7]
10000a8e:	2c00      	cmp	r4, #0
10000a90:	d166      	bne.n	10000b60 <board_to_bytes+0x150>
10000a92:	3401      	adds	r4, #1
10000a94:	43a3      	bics	r3, r4
10000a96:	700b      	strb	r3, [r1, #0]
10000a98:	7a03      	ldrb	r3, [r0, #8]
10000a9a:	2b00      	cmp	r3, #0
10000a9c:	d066      	beq.n	10000b6c <board_to_bytes+0x15c>
10000a9e:	464c      	mov	r4, r9
10000aa0:	784b      	ldrb	r3, [r1, #1]
10000aa2:	4323      	orrs	r3, r4
10000aa4:	b2db      	uxtb	r3, r3
10000aa6:	704b      	strb	r3, [r1, #1]
10000aa8:	7a44      	ldrb	r4, [r0, #9]
10000aaa:	2c00      	cmp	r4, #0
10000aac:	d065      	beq.n	10000b7a <board_to_bytes+0x16a>
10000aae:	4664      	mov	r4, ip
10000ab0:	4323      	orrs	r3, r4
10000ab2:	b2db      	uxtb	r3, r3
10000ab4:	704b      	strb	r3, [r1, #1]
10000ab6:	7a84      	ldrb	r4, [r0, #10]
10000ab8:	2c00      	cmp	r4, #0
10000aba:	d064      	beq.n	10000b86 <board_to_bytes+0x176>
10000abc:	4333      	orrs	r3, r6
10000abe:	b2db      	uxtb	r3, r3
10000ac0:	704b      	strb	r3, [r1, #1]
10000ac2:	7ac4      	ldrb	r4, [r0, #11]
10000ac4:	2c00      	cmp	r4, #0
10000ac6:	d063      	beq.n	10000b90 <board_to_bytes+0x180>
10000ac8:	2410      	movs	r4, #16
10000aca:	4323      	orrs	r3, r4
10000acc:	b2db      	uxtb	r3, r3
10000ace:	704b      	strb	r3, [r1, #1]
10000ad0:	7b04      	ldrb	r4, [r0, #12]
10000ad2:	2c00      	cmp	r4, #0
10000ad4:	d061      	beq.n	10000b9a <board_to_bytes+0x18a>
10000ad6:	2408      	movs	r4, #8
10000ad8:	4323      	orrs	r3, r4
10000ada:	704b      	strb	r3, [r1, #1]
10000adc:	7b44      	ldrb	r4, [r0, #13]
10000ade:	2c00      	cmp	r4, #0
10000ae0:	d061      	beq.n	10000ba6 <board_to_bytes+0x196>
10000ae2:	2404      	movs	r4, #4
10000ae4:	4323      	orrs	r3, r4
10000ae6:	704b      	strb	r3, [r1, #1]
10000ae8:	7b84      	ldrb	r4, [r0, #14]
10000aea:	2c00      	cmp	r4, #0
10000aec:	d061      	beq.n	10000bb2 <board_to_bytes+0x1a2>
10000aee:	2402      	movs	r4, #2
10000af0:	4323      	orrs	r3, r4
10000af2:	704b      	strb	r3, [r1, #1]
10000af4:	7bc4      	ldrb	r4, [r0, #15]
10000af6:	2c00      	cmp	r4, #0
10000af8:	d161      	bne.n	10000bbe <board_to_bytes+0x1ae>
10000afa:	3401      	adds	r4, #1
10000afc:	43a3      	bics	r3, r4
10000afe:	3010      	adds	r0, #16
10000b00:	704b      	strb	r3, [r1, #1]
10000b02:	3102      	adds	r1, #2
10000b04:	4282      	cmp	r2, r0
10000b06:	d061      	beq.n	10000bcc <board_to_bytes+0x1bc>
10000b08:	7803      	ldrb	r3, [r0, #0]
10000b0a:	2b00      	cmp	r3, #0
10000b0c:	d193      	bne.n	10000a36 <board_to_bytes+0x26>
10000b0e:	4654      	mov	r4, sl
10000b10:	780b      	ldrb	r3, [r1, #0]
10000b12:	4023      	ands	r3, r4
10000b14:	700b      	strb	r3, [r1, #0]
10000b16:	7844      	ldrb	r4, [r0, #1]
10000b18:	2c00      	cmp	r4, #0
10000b1a:	d194      	bne.n	10000a46 <board_to_bytes+0x36>
10000b1c:	4644      	mov	r4, r8
10000b1e:	43a3      	bics	r3, r4
10000b20:	700b      	strb	r3, [r1, #0]
10000b22:	7884      	ldrb	r4, [r0, #2]
10000b24:	2c00      	cmp	r4, #0
10000b26:	d195      	bne.n	10000a54 <board_to_bytes+0x44>
10000b28:	43bb      	bics	r3, r7
10000b2a:	700b      	strb	r3, [r1, #0]
10000b2c:	78c4      	ldrb	r4, [r0, #3]
10000b2e:	2c00      	cmp	r4, #0
10000b30:	d196      	bne.n	10000a60 <board_to_bytes+0x50>
10000b32:	43ab      	bics	r3, r5
10000b34:	700b      	strb	r3, [r1, #0]
10000b36:	7904      	ldrb	r4, [r0, #4]
10000b38:	2c00      	cmp	r4, #0
10000b3a:	d198      	bne.n	10000a6e <board_to_bytes+0x5e>
10000b3c:	2408      	movs	r4, #8
10000b3e:	43a3      	bics	r3, r4
10000b40:	700b      	strb	r3, [r1, #0]
10000b42:	7944      	ldrb	r4, [r0, #5]
10000b44:	2c00      	cmp	r4, #0
10000b46:	d198      	bne.n	10000a7a <board_to_bytes+0x6a>
10000b48:	2404      	movs	r4, #4
10000b4a:	43a3      	bics	r3, r4
10000b4c:	700b      	strb	r3, [r1, #0]
10000b4e:	7984      	ldrb	r4, [r0, #6]
10000b50:	2c00      	cmp	r4, #0
10000b52:	d198      	bne.n	10000a86 <board_to_bytes+0x76>
10000b54:	2402      	movs	r4, #2
10000b56:	43a3      	bics	r3, r4
10000b58:	700b      	strb	r3, [r1, #0]
10000b5a:	79c4      	ldrb	r4, [r0, #7]
10000b5c:	2c00      	cmp	r4, #0
10000b5e:	d098      	beq.n	10000a92 <board_to_bytes+0x82>
10000b60:	2401      	movs	r4, #1
10000b62:	4323      	orrs	r3, r4
10000b64:	700b      	strb	r3, [r1, #0]
10000b66:	7a03      	ldrb	r3, [r0, #8]
10000b68:	2b00      	cmp	r3, #0
10000b6a:	d198      	bne.n	10000a9e <board_to_bytes+0x8e>
10000b6c:	4654      	mov	r4, sl
10000b6e:	784b      	ldrb	r3, [r1, #1]
10000b70:	4023      	ands	r3, r4
10000b72:	704b      	strb	r3, [r1, #1]
10000b74:	7a44      	ldrb	r4, [r0, #9]
10000b76:	2c00      	cmp	r4, #0
10000b78:	d199      	bne.n	10000aae <board_to_bytes+0x9e>
10000b7a:	4644      	mov	r4, r8
10000b7c:	43a3      	bics	r3, r4
10000b7e:	704b      	strb	r3, [r1, #1]
10000b80:	7a84      	ldrb	r4, [r0, #10]
10000b82:	2c00      	cmp	r4, #0
10000b84:	d19a      	bne.n	10000abc <board_to_bytes+0xac>
10000b86:	43bb      	bics	r3, r7
10000b88:	704b      	strb	r3, [r1, #1]
10000b8a:	7ac4      	ldrb	r4, [r0, #11]
10000b8c:	2c00      	cmp	r4, #0
10000b8e:	d19b      	bne.n	10000ac8 <board_to_bytes+0xb8>
10000b90:	43ab      	bics	r3, r5
10000b92:	704b      	strb	r3, [r1, #1]
10000b94:	7b04      	ldrb	r4, [r0, #12]
10000b96:	2c00      	cmp	r4, #0
10000b98:	d19d      	bne.n	10000ad6 <board_to_bytes+0xc6>
10000b9a:	2408      	movs	r4, #8
10000b9c:	43a3      	bics	r3, r4
10000b9e:	704b      	strb	r3, [r1, #1]
10000ba0:	7b44      	ldrb	r4, [r0, #13]
10000ba2:	2c00      	cmp	r4, #0
10000ba4:	d19d      	bne.n	10000ae2 <board_to_bytes+0xd2>
10000ba6:	2404      	movs	r4, #4
10000ba8:	43a3      	bics	r3, r4
10000baa:	704b      	strb	r3, [r1, #1]
10000bac:	7b84      	ldrb	r4, [r0, #14]
10000bae:	2c00      	cmp	r4, #0
10000bb0:	d19d      	bne.n	10000aee <board_to_bytes+0xde>
10000bb2:	2402      	movs	r4, #2
10000bb4:	43a3      	bics	r3, r4
10000bb6:	704b      	strb	r3, [r1, #1]
10000bb8:	7bc4      	ldrb	r4, [r0, #15]
10000bba:	2c00      	cmp	r4, #0
10000bbc:	d09d      	beq.n	10000afa <board_to_bytes+0xea>
10000bbe:	2401      	movs	r4, #1
10000bc0:	3010      	adds	r0, #16
10000bc2:	4323      	orrs	r3, r4
10000bc4:	704b      	strb	r3, [r1, #1]
10000bc6:	3102      	adds	r1, #2
10000bc8:	4282      	cmp	r2, r0
10000bca:	d19d      	bne.n	10000b08 <board_to_bytes+0xf8>
10000bcc:	2208      	movs	r2, #8
10000bce:	4b05      	ldr	r3, [pc, #20]	; (10000be4 <board_to_bytes+0x1d4>)
10000bd0:	701a      	strb	r2, [r3, #0]
10000bd2:	4b05      	ldr	r3, [pc, #20]	; (10000be8 <board_to_bytes+0x1d8>)
10000bd4:	3208      	adds	r2, #8
10000bd6:	701a      	strb	r2, [r3, #0]
10000bd8:	bcf0      	pop	{r4, r5, r6, r7}
10000bda:	46bb      	mov	fp, r7
10000bdc:	46b2      	mov	sl, r6
10000bde:	46a9      	mov	r9, r5
10000be0:	46a0      	mov	r8, r4
10000be2:	bdf0      	pop	{r4, r5, r6, r7, pc}
10000be4:	20001307 	.word	0x20001307
10000be8:	20001304 	.word	0x20001304

10000bec <init_rand>:
10000bec:	4a15      	ldr	r2, [pc, #84]	; (10000c44 <init_rand+0x58>)
10000bee:	b5f8      	push	{r3, r4, r5, r6, r7, lr}
10000bf0:	6813      	ldr	r3, [r2, #0]
10000bf2:	2b00      	cmp	r3, #0
10000bf4:	d124      	bne.n	10000c40 <init_rand+0x54>
10000bf6:	4b14      	ldr	r3, [pc, #80]	; (10000c48 <init_rand+0x5c>)
10000bf8:	4c14      	ldr	r4, [pc, #80]	; (10000c4c <init_rand+0x60>)
10000bfa:	781e      	ldrb	r6, [r3, #0]
10000bfc:	4b14      	ldr	r3, [pc, #80]	; (10000c50 <init_rand+0x64>)
10000bfe:	781d      	ldrb	r5, [r3, #0]
10000c00:	4b14      	ldr	r3, [pc, #80]	; (10000c54 <init_rand+0x68>)
10000c02:	042f      	lsls	r7, r5, #16
10000c04:	7818      	ldrb	r0, [r3, #0]
10000c06:	4b14      	ldr	r3, [pc, #80]	; (10000c58 <init_rand+0x6c>)
10000c08:	3502      	adds	r5, #2
10000c0a:	7819      	ldrb	r1, [r3, #0]
10000c0c:	0633      	lsls	r3, r6, #24
10000c0e:	19db      	adds	r3, r3, r7
10000c10:	185b      	adds	r3, r3, r1
10000c12:	0207      	lsls	r7, r0, #8
10000c14:	3104      	adds	r1, #4
10000c16:	3003      	adds	r0, #3
10000c18:	70a0      	strb	r0, [r4, #2]
10000c1a:	70e1      	strb	r1, [r4, #3]
10000c1c:	2080      	movs	r0, #128	; 0x80
10000c1e:	2180      	movs	r1, #128	; 0x80
10000c20:	19db      	adds	r3, r3, r7
10000c22:	0149      	lsls	r1, r1, #5
10000c24:	02c0      	lsls	r0, r0, #11
10000c26:	3601      	adds	r6, #1
10000c28:	6013      	str	r3, [r2, #0]
10000c2a:	7026      	strb	r6, [r4, #0]
10000c2c:	7065      	strb	r5, [r4, #1]
10000c2e:	f002 fe0f 	bl	10003850 <__flash_range_erase_veneer>
10000c32:	2280      	movs	r2, #128	; 0x80
10000c34:	2080      	movs	r0, #128	; 0x80
10000c36:	0021      	movs	r1, r4
10000c38:	0052      	lsls	r2, r2, #1
10000c3a:	02c0      	lsls	r0, r0, #11
10000c3c:	f002 fdf0 	bl	10003820 <__flash_range_program_veneer>
10000c40:	bdf8      	pop	{r3, r4, r5, r6, r7, pc}
10000c42:	46c0      	nop			; (mov r8, r8)
10000c44:	200011e4 	.word	0x200011e4
10000c48:	10040000 	.word	0x10040000
10000c4c:	200011e8 	.word	0x200011e8
10000c50:	10040001 	.word	0x10040001
10000c54:	10040002 	.word	0x10040002
10000c58:	10040003 	.word	0x10040003

10000c5c <rand_uint16>:
10000c5c:	4b08      	ldr	r3, [pc, #32]	; (10000c80 <rand_uint16+0x24>)
10000c5e:	b510      	push	{r4, lr}
10000c60:	681a      	ldr	r2, [r3, #0]
10000c62:	0004      	movs	r4, r0
10000c64:	4807      	ldr	r0, [pc, #28]	; (10000c84 <rand_uint16+0x28>)
10000c66:	1b09      	subs	r1, r1, r4
10000c68:	4350      	muls	r0, r2
10000c6a:	4a07      	ldr	r2, [pc, #28]	; (10000c88 <rand_uint16+0x2c>)
10000c6c:	3101      	adds	r1, #1
10000c6e:	4694      	mov	ip, r2
10000c70:	4460      	add	r0, ip
10000c72:	6018      	str	r0, [r3, #0]
10000c74:	f001 fed2 	bl	10002a1c <__wrap___aeabi_uidiv>
10000c78:	1860      	adds	r0, r4, r1
10000c7a:	b280      	uxth	r0, r0
10000c7c:	bd10      	pop	{r4, pc}
10000c7e:	46c0      	nop			; (mov r8, r8)
10000c80:	200011e4 	.word	0x200011e4
10000c84:	0019660d 	.word	0x0019660d
10000c88:	3c6ef35f 	.word	0x3c6ef35f

10000c8c <gpio_default_irq_handler>:
10000c8c:	23d0      	movs	r3, #208	; 0xd0
10000c8e:	061b      	lsls	r3, r3, #24
10000c90:	681b      	ldr	r3, [r3, #0]
10000c92:	4a82      	ldr	r2, [pc, #520]	; (10000e9c <gpio_default_irq_handler+0x210>)
10000c94:	0099      	lsls	r1, r3, #2
10000c96:	5852      	ldr	r2, [r2, r1]
10000c98:	b5f0      	push	{r4, r5, r6, r7, lr}
10000c9a:	4657      	mov	r7, sl
10000c9c:	4692      	mov	sl, r2
10000c9e:	1e5a      	subs	r2, r3, #1
10000ca0:	4193      	sbcs	r3, r2
10000ca2:	2230      	movs	r2, #48	; 0x30
10000ca4:	46de      	mov	lr, fp
10000ca6:	464e      	mov	r6, r9
10000ca8:	4645      	mov	r5, r8
10000caa:	425b      	negs	r3, r3
10000cac:	401a      	ands	r2, r3
10000cae:	0013      	movs	r3, r2
10000cb0:	4a7b      	ldr	r2, [pc, #492]	; (10000ea0 <gpio_default_irq_handler+0x214>)
10000cb2:	b5e0      	push	{r5, r6, r7, lr}
10000cb4:	4694      	mov	ip, r2
10000cb6:	b083      	sub	sp, #12
10000cb8:	4463      	add	r3, ip
10000cba:	9301      	str	r3, [sp, #4]
10000cbc:	4b79      	ldr	r3, [pc, #484]	; (10000ea4 <gpio_default_irq_handler+0x218>)
10000cbe:	4688      	mov	r8, r1
10000cc0:	2600      	movs	r6, #0
10000cc2:	270f      	movs	r7, #15
10000cc4:	469b      	mov	fp, r3
10000cc6:	08f2      	lsrs	r2, r6, #3
10000cc8:	0013      	movs	r3, r2
10000cca:	9901      	ldr	r1, [sp, #4]
10000ccc:	3308      	adds	r3, #8
10000cce:	009b      	lsls	r3, r3, #2
10000cd0:	585c      	ldr	r4, [r3, r1]
10000cd2:	0035      	movs	r5, r6
10000cd4:	3608      	adds	r6, #8
10000cd6:	2c00      	cmp	r4, #0
10000cd8:	d022      	beq.n	10000d20 <gpio_default_irq_handler+0x94>
10000cda:	2301      	movs	r3, #1
10000cdc:	4699      	mov	r9, r3
10000cde:	4653      	mov	r3, sl
10000ce0:	2b00      	cmp	r3, #0
10000ce2:	d026      	beq.n	10000d32 <gpio_default_irq_handler+0xa6>
10000ce4:	0039      	movs	r1, r7
10000ce6:	4021      	ands	r1, r4
10000ce8:	4227      	tst	r7, r4
10000cea:	d013      	beq.n	10000d14 <gpio_default_irq_handler+0x88>
10000cec:	465b      	mov	r3, fp
10000cee:	4642      	mov	r2, r8
10000cf0:	589a      	ldr	r2, [r3, r2]
10000cf2:	464b      	mov	r3, r9
10000cf4:	40ab      	lsls	r3, r5
10000cf6:	421a      	tst	r2, r3
10000cf8:	d10c      	bne.n	10000d14 <gpio_default_irq_handler+0x88>
10000cfa:	2207      	movs	r2, #7
10000cfc:	0008      	movs	r0, r1
10000cfe:	402a      	ands	r2, r5
10000d00:	0092      	lsls	r2, r2, #2
10000d02:	4090      	lsls	r0, r2
10000d04:	0002      	movs	r2, r0
10000d06:	08eb      	lsrs	r3, r5, #3
10000d08:	4867      	ldr	r0, [pc, #412]	; (10000ea8 <gpio_default_irq_handler+0x21c>)
10000d0a:	333c      	adds	r3, #60	; 0x3c
10000d0c:	009b      	lsls	r3, r3, #2
10000d0e:	501a      	str	r2, [r3, r0]
10000d10:	0028      	movs	r0, r5
10000d12:	47d0      	blx	sl
10000d14:	0924      	lsrs	r4, r4, #4
10000d16:	3501      	adds	r5, #1
10000d18:	2c00      	cmp	r4, #0
10000d1a:	d001      	beq.n	10000d20 <gpio_default_irq_handler+0x94>
10000d1c:	42b5      	cmp	r5, r6
10000d1e:	d3e1      	bcc.n	10000ce4 <gpio_default_irq_handler+0x58>
10000d20:	2e20      	cmp	r6, #32
10000d22:	d1d0      	bne.n	10000cc6 <gpio_default_irq_handler+0x3a>
10000d24:	b003      	add	sp, #12
10000d26:	bcf0      	pop	{r4, r5, r6, r7}
10000d28:	46bb      	mov	fp, r7
10000d2a:	46b2      	mov	sl, r6
10000d2c:	46a9      	mov	r9, r5
10000d2e:	46a0      	mov	r8, r4
10000d30:	bdf0      	pop	{r4, r5, r6, r7, pc}
10000d32:	0039      	movs	r1, r7
10000d34:	4021      	ands	r1, r4
10000d36:	4227      	tst	r7, r4
10000d38:	d009      	beq.n	10000d4e <gpio_default_irq_handler+0xc2>
10000d3a:	3301      	adds	r3, #1
10000d3c:	40ab      	lsls	r3, r5
10000d3e:	469c      	mov	ip, r3
10000d40:	4643      	mov	r3, r8
10000d42:	4858      	ldr	r0, [pc, #352]	; (10000ea4 <gpio_default_irq_handler+0x218>)
10000d44:	58c0      	ldr	r0, [r0, r3]
10000d46:	4663      	mov	r3, ip
10000d48:	4218      	tst	r0, r3
10000d4a:	d100      	bne.n	10000d4e <gpio_default_irq_handler+0xc2>
10000d4c:	e07e      	b.n	10000e4c <gpio_default_irq_handler+0x1c0>
10000d4e:	0923      	lsrs	r3, r4, #4
10000d50:	d0e6      	beq.n	10000d20 <gpio_default_irq_handler+0x94>
10000d52:	220f      	movs	r2, #15
10000d54:	0011      	movs	r1, r2
10000d56:	4019      	ands	r1, r3
10000d58:	421a      	tst	r2, r3
10000d5a:	d00f      	beq.n	10000d7c <gpio_default_irq_handler+0xf0>
10000d5c:	1c6b      	adds	r3, r5, #1
10000d5e:	3a0e      	subs	r2, #14
10000d60:	409a      	lsls	r2, r3
10000d62:	4694      	mov	ip, r2
10000d64:	4642      	mov	r2, r8
10000d66:	484f      	ldr	r0, [pc, #316]	; (10000ea4 <gpio_default_irq_handler+0x218>)
10000d68:	5880      	ldr	r0, [r0, r2]
10000d6a:	4662      	mov	r2, ip
10000d6c:	4210      	tst	r0, r2
10000d6e:	d105      	bne.n	10000d7c <gpio_default_irq_handler+0xf0>
10000d70:	08db      	lsrs	r3, r3, #3
10000d72:	4a4d      	ldr	r2, [pc, #308]	; (10000ea8 <gpio_default_irq_handler+0x21c>)
10000d74:	333c      	adds	r3, #60	; 0x3c
10000d76:	0109      	lsls	r1, r1, #4
10000d78:	009b      	lsls	r3, r3, #2
10000d7a:	5099      	str	r1, [r3, r2]
10000d7c:	0a23      	lsrs	r3, r4, #8
10000d7e:	d0cf      	beq.n	10000d20 <gpio_default_irq_handler+0x94>
10000d80:	220f      	movs	r2, #15
10000d82:	0011      	movs	r1, r2
10000d84:	4019      	ands	r1, r3
10000d86:	421a      	tst	r2, r3
10000d88:	d00f      	beq.n	10000daa <gpio_default_irq_handler+0x11e>
10000d8a:	1cab      	adds	r3, r5, #2
10000d8c:	3a0e      	subs	r2, #14
10000d8e:	409a      	lsls	r2, r3
10000d90:	4694      	mov	ip, r2
10000d92:	4642      	mov	r2, r8
10000d94:	4843      	ldr	r0, [pc, #268]	; (10000ea4 <gpio_default_irq_handler+0x218>)
10000d96:	5880      	ldr	r0, [r0, r2]
10000d98:	4662      	mov	r2, ip
10000d9a:	4210      	tst	r0, r2
10000d9c:	d105      	bne.n	10000daa <gpio_default_irq_handler+0x11e>
10000d9e:	08db      	lsrs	r3, r3, #3
10000da0:	4a41      	ldr	r2, [pc, #260]	; (10000ea8 <gpio_default_irq_handler+0x21c>)
10000da2:	333c      	adds	r3, #60	; 0x3c
10000da4:	0209      	lsls	r1, r1, #8
10000da6:	009b      	lsls	r3, r3, #2
10000da8:	5099      	str	r1, [r3, r2]
10000daa:	0b23      	lsrs	r3, r4, #12
10000dac:	d0b8      	beq.n	10000d20 <gpio_default_irq_handler+0x94>
10000dae:	220f      	movs	r2, #15
10000db0:	0011      	movs	r1, r2
10000db2:	4019      	ands	r1, r3
10000db4:	421a      	tst	r2, r3
10000db6:	d138      	bne.n	10000e2a <gpio_default_irq_handler+0x19e>
10000db8:	0c23      	lsrs	r3, r4, #16
10000dba:	d0b1      	beq.n	10000d20 <gpio_default_irq_handler+0x94>
10000dbc:	220f      	movs	r2, #15
10000dbe:	0011      	movs	r1, r2
10000dc0:	4019      	ands	r1, r3
10000dc2:	421a      	tst	r2, r3
10000dc4:	d147      	bne.n	10000e56 <gpio_default_irq_handler+0x1ca>
10000dc6:	0d23      	lsrs	r3, r4, #20
10000dc8:	d0aa      	beq.n	10000d20 <gpio_default_irq_handler+0x94>
10000dca:	220f      	movs	r2, #15
10000dcc:	0011      	movs	r1, r2
10000dce:	4019      	ands	r1, r3
10000dd0:	421a      	tst	r2, r3
10000dd2:	d151      	bne.n	10000e78 <gpio_default_irq_handler+0x1ec>
10000dd4:	0e23      	lsrs	r3, r4, #24
10000dd6:	d0a3      	beq.n	10000d20 <gpio_default_irq_handler+0x94>
10000dd8:	220f      	movs	r2, #15
10000dda:	0011      	movs	r1, r2
10000ddc:	4019      	ands	r1, r3
10000dde:	421a      	tst	r2, r3
10000de0:	d00f      	beq.n	10000e02 <gpio_default_irq_handler+0x176>
10000de2:	1dab      	adds	r3, r5, #6
10000de4:	3a0e      	subs	r2, #14
10000de6:	409a      	lsls	r2, r3
10000de8:	4694      	mov	ip, r2
10000dea:	4642      	mov	r2, r8
10000dec:	482d      	ldr	r0, [pc, #180]	; (10000ea4 <gpio_default_irq_handler+0x218>)
10000dee:	5880      	ldr	r0, [r0, r2]
10000df0:	4662      	mov	r2, ip
10000df2:	4210      	tst	r0, r2
10000df4:	d105      	bne.n	10000e02 <gpio_default_irq_handler+0x176>
10000df6:	08db      	lsrs	r3, r3, #3
10000df8:	4a2b      	ldr	r2, [pc, #172]	; (10000ea8 <gpio_default_irq_handler+0x21c>)
10000dfa:	333c      	adds	r3, #60	; 0x3c
10000dfc:	0609      	lsls	r1, r1, #24
10000dfe:	009b      	lsls	r3, r3, #2
10000e00:	5099      	str	r1, [r3, r2]
10000e02:	0f24      	lsrs	r4, r4, #28
10000e04:	3507      	adds	r5, #7
10000e06:	2c00      	cmp	r4, #0
10000e08:	d100      	bne.n	10000e0c <gpio_default_irq_handler+0x180>
10000e0a:	e789      	b.n	10000d20 <gpio_default_irq_handler+0x94>
10000e0c:	2301      	movs	r3, #1
10000e0e:	4641      	mov	r1, r8
10000e10:	40ab      	lsls	r3, r5
10000e12:	4a24      	ldr	r2, [pc, #144]	; (10000ea4 <gpio_default_irq_handler+0x218>)
10000e14:	5852      	ldr	r2, [r2, r1]
10000e16:	421a      	tst	r2, r3
10000e18:	d000      	beq.n	10000e1c <gpio_default_irq_handler+0x190>
10000e1a:	e781      	b.n	10000d20 <gpio_default_irq_handler+0x94>
10000e1c:	08ed      	lsrs	r5, r5, #3
10000e1e:	4a22      	ldr	r2, [pc, #136]	; (10000ea8 <gpio_default_irq_handler+0x21c>)
10000e20:	353c      	adds	r5, #60	; 0x3c
10000e22:	0724      	lsls	r4, r4, #28
10000e24:	00ad      	lsls	r5, r5, #2
10000e26:	50ac      	str	r4, [r5, r2]
10000e28:	e77a      	b.n	10000d20 <gpio_default_irq_handler+0x94>
10000e2a:	1ceb      	adds	r3, r5, #3
10000e2c:	3a0e      	subs	r2, #14
10000e2e:	409a      	lsls	r2, r3
10000e30:	4694      	mov	ip, r2
10000e32:	4642      	mov	r2, r8
10000e34:	481b      	ldr	r0, [pc, #108]	; (10000ea4 <gpio_default_irq_handler+0x218>)
10000e36:	5880      	ldr	r0, [r0, r2]
10000e38:	4662      	mov	r2, ip
10000e3a:	4210      	tst	r0, r2
10000e3c:	d1bc      	bne.n	10000db8 <gpio_default_irq_handler+0x12c>
10000e3e:	08db      	lsrs	r3, r3, #3
10000e40:	4a19      	ldr	r2, [pc, #100]	; (10000ea8 <gpio_default_irq_handler+0x21c>)
10000e42:	333c      	adds	r3, #60	; 0x3c
10000e44:	0309      	lsls	r1, r1, #12
10000e46:	009b      	lsls	r3, r3, #2
10000e48:	5099      	str	r1, [r3, r2]
10000e4a:	e7b5      	b.n	10000db8 <gpio_default_irq_handler+0x12c>
10000e4c:	4b16      	ldr	r3, [pc, #88]	; (10000ea8 <gpio_default_irq_handler+0x21c>)
10000e4e:	323c      	adds	r2, #60	; 0x3c
10000e50:	0092      	lsls	r2, r2, #2
10000e52:	50d1      	str	r1, [r2, r3]
10000e54:	e77b      	b.n	10000d4e <gpio_default_irq_handler+0xc2>
10000e56:	1d2b      	adds	r3, r5, #4
10000e58:	3a0e      	subs	r2, #14
10000e5a:	409a      	lsls	r2, r3
10000e5c:	4694      	mov	ip, r2
10000e5e:	4642      	mov	r2, r8
10000e60:	4810      	ldr	r0, [pc, #64]	; (10000ea4 <gpio_default_irq_handler+0x218>)
10000e62:	5880      	ldr	r0, [r0, r2]
10000e64:	4662      	mov	r2, ip
10000e66:	4210      	tst	r0, r2
10000e68:	d1ad      	bne.n	10000dc6 <gpio_default_irq_handler+0x13a>
10000e6a:	08db      	lsrs	r3, r3, #3
10000e6c:	4a0e      	ldr	r2, [pc, #56]	; (10000ea8 <gpio_default_irq_handler+0x21c>)
10000e6e:	333c      	adds	r3, #60	; 0x3c
10000e70:	0409      	lsls	r1, r1, #16
10000e72:	009b      	lsls	r3, r3, #2
10000e74:	5099      	str	r1, [r3, r2]
10000e76:	e7a6      	b.n	10000dc6 <gpio_default_irq_handler+0x13a>
10000e78:	1d6b      	adds	r3, r5, #5
10000e7a:	3a0e      	subs	r2, #14
10000e7c:	409a      	lsls	r2, r3
10000e7e:	4694      	mov	ip, r2
10000e80:	4642      	mov	r2, r8
10000e82:	4808      	ldr	r0, [pc, #32]	; (10000ea4 <gpio_default_irq_handler+0x218>)
10000e84:	5880      	ldr	r0, [r0, r2]
10000e86:	4662      	mov	r2, ip
10000e88:	4210      	tst	r0, r2
10000e8a:	d1a3      	bne.n	10000dd4 <gpio_default_irq_handler+0x148>
10000e8c:	08db      	lsrs	r3, r3, #3
10000e8e:	4a06      	ldr	r2, [pc, #24]	; (10000ea8 <gpio_default_irq_handler+0x21c>)
10000e90:	333c      	adds	r3, #60	; 0x3c
10000e92:	0509      	lsls	r1, r1, #20
10000e94:	009b      	lsls	r3, r3, #2
10000e96:	5099      	str	r1, [r3, r2]
10000e98:	e79c      	b.n	10000dd4 <gpio_default_irq_handler+0x148>
10000e9a:	46c0      	nop			; (mov r8, r8)
10000e9c:	20001040 	.word	0x20001040
10000ea0:	40014100 	.word	0x40014100
10000ea4:	200011d8 	.word	0x200011d8
10000ea8:	40014000 	.word	0x40014000

10000eac <gpio_set_pulls>:
10000eac:	4b07      	ldr	r3, [pc, #28]	; (10000ecc <gpio_set_pulls+0x20>)
10000eae:	0080      	lsls	r0, r0, #2
10000eb0:	469c      	mov	ip, r3
10000eb2:	4460      	add	r0, ip
10000eb4:	6803      	ldr	r3, [r0, #0]
10000eb6:	00c9      	lsls	r1, r1, #3
10000eb8:	0092      	lsls	r2, r2, #2
10000eba:	430a      	orrs	r2, r1
10000ebc:	405a      	eors	r2, r3
10000ebe:	230c      	movs	r3, #12
10000ec0:	401a      	ands	r2, r3
10000ec2:	2380      	movs	r3, #128	; 0x80
10000ec4:	015b      	lsls	r3, r3, #5
10000ec6:	4303      	orrs	r3, r0
10000ec8:	601a      	str	r2, [r3, #0]
10000eca:	4770      	bx	lr
10000ecc:	4001c004 	.word	0x4001c004

10000ed0 <gpio_set_irq_enabled>:
10000ed0:	23d0      	movs	r3, #208	; 0xd0
10000ed2:	061b      	lsls	r3, r3, #24
10000ed4:	681b      	ldr	r3, [r3, #0]
10000ed6:	b530      	push	{r4, r5, lr}
10000ed8:	0005      	movs	r5, r0
10000eda:	4258      	negs	r0, r3
10000edc:	4143      	adcs	r3, r0
10000ede:	202f      	movs	r0, #47	; 0x2f
10000ee0:	425b      	negs	r3, r3
10000ee2:	4383      	bics	r3, r0
10000ee4:	480d      	ldr	r0, [pc, #52]	; (10000f1c <gpio_set_irq_enabled+0x4c>)
10000ee6:	08ec      	lsrs	r4, r5, #3
10000ee8:	4684      	mov	ip, r0
10000eea:	2007      	movs	r0, #7
10000eec:	4028      	ands	r0, r5
10000eee:	0080      	lsls	r0, r0, #2
10000ef0:	4081      	lsls	r1, r0
10000ef2:	0020      	movs	r0, r4
10000ef4:	4d0a      	ldr	r5, [pc, #40]	; (10000f20 <gpio_set_irq_enabled+0x50>)
10000ef6:	303c      	adds	r0, #60	; 0x3c
10000ef8:	4463      	add	r3, ip
10000efa:	0080      	lsls	r0, r0, #2
10000efc:	00a4      	lsls	r4, r4, #2
10000efe:	5141      	str	r1, [r0, r5]
10000f00:	191b      	adds	r3, r3, r4
10000f02:	2a00      	cmp	r2, #0
10000f04:	d004      	beq.n	10000f10 <gpio_set_irq_enabled+0x40>
10000f06:	2280      	movs	r2, #128	; 0x80
10000f08:	0192      	lsls	r2, r2, #6
10000f0a:	4313      	orrs	r3, r2
10000f0c:	6019      	str	r1, [r3, #0]
10000f0e:	bd30      	pop	{r4, r5, pc}
10000f10:	22c0      	movs	r2, #192	; 0xc0
10000f12:	0192      	lsls	r2, r2, #6
10000f14:	4313      	orrs	r3, r2
10000f16:	6019      	str	r1, [r3, #0]
10000f18:	e7f9      	b.n	10000f0e <gpio_set_irq_enabled+0x3e>
10000f1a:	46c0      	nop			; (mov r8, r8)
10000f1c:	40014130 	.word	0x40014130
10000f20:	40014000 	.word	0x40014000

10000f24 <gpio_set_irq_enabled_with_callback>:
10000f24:	b5f8      	push	{r3, r4, r5, r6, r7, lr}
10000f26:	001d      	movs	r5, r3
10000f28:	23d0      	movs	r3, #208	; 0xd0
10000f2a:	061b      	lsls	r3, r3, #24
10000f2c:	681c      	ldr	r4, [r3, #0]
10000f2e:	0006      	movs	r6, r0
10000f30:	4260      	negs	r0, r4
10000f32:	4144      	adcs	r4, r0
10000f34:	202f      	movs	r0, #47	; 0x2f
10000f36:	4264      	negs	r4, r4
10000f38:	4384      	bics	r4, r0
10000f3a:	4827      	ldr	r0, [pc, #156]	; (10000fd8 <gpio_set_irq_enabled_with_callback+0xb4>)
10000f3c:	08f7      	lsrs	r7, r6, #3
10000f3e:	4684      	mov	ip, r0
10000f40:	2007      	movs	r0, #7
10000f42:	4030      	ands	r0, r6
10000f44:	0080      	lsls	r0, r0, #2
10000f46:	4081      	lsls	r1, r0
10000f48:	0038      	movs	r0, r7
10000f4a:	4e24      	ldr	r6, [pc, #144]	; (10000fdc <gpio_set_irq_enabled_with_callback+0xb8>)
10000f4c:	303c      	adds	r0, #60	; 0x3c
10000f4e:	4464      	add	r4, ip
10000f50:	0080      	lsls	r0, r0, #2
10000f52:	00bf      	lsls	r7, r7, #2
10000f54:	5181      	str	r1, [r0, r6]
10000f56:	19e4      	adds	r4, r4, r7
10000f58:	2a00      	cmp	r2, #0
10000f5a:	d011      	beq.n	10000f80 <gpio_set_irq_enabled_with_callback+0x5c>
10000f5c:	2280      	movs	r2, #128	; 0x80
10000f5e:	0192      	lsls	r2, r2, #6
10000f60:	4322      	orrs	r2, r4
10000f62:	6011      	str	r1, [r2, #0]
10000f64:	681c      	ldr	r4, [r3, #0]
10000f66:	4e1e      	ldr	r6, [pc, #120]	; (10000fe0 <gpio_set_irq_enabled_with_callback+0xbc>)
10000f68:	00a4      	lsls	r4, r4, #2
10000f6a:	59a3      	ldr	r3, [r4, r6]
10000f6c:	2b00      	cmp	r3, #0
10000f6e:	d015      	beq.n	10000f9c <gpio_set_irq_enabled_with_callback+0x78>
10000f70:	2d00      	cmp	r5, #0
10000f72:	d025      	beq.n	10000fc0 <gpio_set_irq_enabled_with_callback+0x9c>
10000f74:	51a5      	str	r5, [r4, r6]
10000f76:	2101      	movs	r1, #1
10000f78:	200d      	movs	r0, #13
10000f7a:	f000 f897 	bl	100010ac <irq_set_enabled>
10000f7e:	bdf8      	pop	{r3, r4, r5, r6, r7, pc}
10000f80:	22c0      	movs	r2, #192	; 0xc0
10000f82:	0192      	lsls	r2, r2, #6
10000f84:	4322      	orrs	r2, r4
10000f86:	6011      	str	r1, [r2, #0]
10000f88:	681c      	ldr	r4, [r3, #0]
10000f8a:	4e15      	ldr	r6, [pc, #84]	; (10000fe0 <gpio_set_irq_enabled_with_callback+0xbc>)
10000f8c:	00a4      	lsls	r4, r4, #2
10000f8e:	59a3      	ldr	r3, [r4, r6]
10000f90:	2b00      	cmp	r3, #0
10000f92:	d00c      	beq.n	10000fae <gpio_set_irq_enabled_with_callback+0x8a>
10000f94:	2d00      	cmp	r5, #0
10000f96:	d018      	beq.n	10000fca <gpio_set_irq_enabled_with_callback+0xa6>
10000f98:	51a5      	str	r5, [r4, r6]
10000f9a:	e7f0      	b.n	10000f7e <gpio_set_irq_enabled_with_callback+0x5a>
10000f9c:	2d00      	cmp	r5, #0
10000f9e:	d0ea      	beq.n	10000f76 <gpio_set_irq_enabled_with_callback+0x52>
10000fa0:	2200      	movs	r2, #0
10000fa2:	200d      	movs	r0, #13
10000fa4:	490f      	ldr	r1, [pc, #60]	; (10000fe4 <gpio_set_irq_enabled_with_callback+0xc0>)
10000fa6:	51a5      	str	r5, [r4, r6]
10000fa8:	f000 f8c4 	bl	10001134 <irq_add_shared_handler>
10000fac:	e7e3      	b.n	10000f76 <gpio_set_irq_enabled_with_callback+0x52>
10000fae:	2d00      	cmp	r5, #0
10000fb0:	d0e5      	beq.n	10000f7e <gpio_set_irq_enabled_with_callback+0x5a>
10000fb2:	2200      	movs	r2, #0
10000fb4:	200d      	movs	r0, #13
10000fb6:	490b      	ldr	r1, [pc, #44]	; (10000fe4 <gpio_set_irq_enabled_with_callback+0xc0>)
10000fb8:	51a5      	str	r5, [r4, r6]
10000fba:	f000 f8bb 	bl	10001134 <irq_add_shared_handler>
10000fbe:	e7de      	b.n	10000f7e <gpio_set_irq_enabled_with_callback+0x5a>
10000fc0:	200d      	movs	r0, #13
10000fc2:	4908      	ldr	r1, [pc, #32]	; (10000fe4 <gpio_set_irq_enabled_with_callback+0xc0>)
10000fc4:	f000 f9a6 	bl	10001314 <irq_remove_handler>
10000fc8:	e7d4      	b.n	10000f74 <gpio_set_irq_enabled_with_callback+0x50>
10000fca:	200d      	movs	r0, #13
10000fcc:	4905      	ldr	r1, [pc, #20]	; (10000fe4 <gpio_set_irq_enabled_with_callback+0xc0>)
10000fce:	f000 f9a1 	bl	10001314 <irq_remove_handler>
10000fd2:	51a5      	str	r5, [r4, r6]
10000fd4:	e7d3      	b.n	10000f7e <gpio_set_irq_enabled_with_callback+0x5a>
10000fd6:	46c0      	nop			; (mov r8, r8)
10000fd8:	40014130 	.word	0x40014130
10000fdc:	40014000 	.word	0x40014000
10000fe0:	20001040 	.word	0x20001040
10000fe4:	10000c8d 	.word	0x10000c8d

10000fe8 <gpio_init>:
10000fe8:	2301      	movs	r3, #1
10000fea:	22d0      	movs	r2, #208	; 0xd0
10000fec:	4083      	lsls	r3, r0
10000fee:	0612      	lsls	r2, r2, #24
10000ff0:	6293      	str	r3, [r2, #40]	; 0x28
10000ff2:	6193      	str	r3, [r2, #24]
10000ff4:	4a09      	ldr	r2, [pc, #36]	; (1000101c <gpio_init+0x34>)
10000ff6:	2140      	movs	r1, #64	; 0x40
10000ff8:	4694      	mov	ip, r2
10000ffa:	0083      	lsls	r3, r0, #2
10000ffc:	4463      	add	r3, ip
10000ffe:	681a      	ldr	r2, [r3, #0]
10001000:	00c0      	lsls	r0, r0, #3
10001002:	404a      	eors	r2, r1
10001004:	3180      	adds	r1, #128	; 0x80
10001006:	4011      	ands	r1, r2
10001008:	2280      	movs	r2, #128	; 0x80
1000100a:	0152      	lsls	r2, r2, #5
1000100c:	4313      	orrs	r3, r2
1000100e:	6019      	str	r1, [r3, #0]
10001010:	4b03      	ldr	r3, [pc, #12]	; (10001020 <gpio_init+0x38>)
10001012:	469c      	mov	ip, r3
10001014:	2305      	movs	r3, #5
10001016:	4460      	add	r0, ip
10001018:	6043      	str	r3, [r0, #4]
1000101a:	4770      	bx	lr
1000101c:	4001c004 	.word	0x4001c004
10001020:	40014000 	.word	0x40014000

10001024 <hw_claim_or_assert>:
10001024:	b570      	push	{r4, r5, r6, lr}
10001026:	f3ef 8c10 	mrs	ip, PRIMASK
1000102a:	b672      	cpsid	i
1000102c:	4d0d      	ldr	r5, [pc, #52]	; (10001064 <hw_claim_or_assert+0x40>)
1000102e:	682b      	ldr	r3, [r5, #0]
10001030:	2b00      	cmp	r3, #0
10001032:	d0fc      	beq.n	1000102e <hw_claim_or_assert+0xa>
10001034:	f3bf 8f5f 	dmb	sy
10001038:	2407      	movs	r4, #7
1000103a:	08cb      	lsrs	r3, r1, #3
1000103c:	18c6      	adds	r6, r0, r3
1000103e:	5cc0      	ldrb	r0, [r0, r3]
10001040:	2301      	movs	r3, #1
10001042:	400c      	ands	r4, r1
10001044:	40a3      	lsls	r3, r4
10001046:	001c      	movs	r4, r3
10001048:	4004      	ands	r4, r0
1000104a:	4203      	tst	r3, r0
1000104c:	d107      	bne.n	1000105e <hw_claim_or_assert+0x3a>
1000104e:	4318      	orrs	r0, r3
10001050:	7030      	strb	r0, [r6, #0]
10001052:	f3bf 8f5f 	dmb	sy
10001056:	602c      	str	r4, [r5, #0]
10001058:	f38c 8810 	msr	PRIMASK, ip
1000105c:	bd70      	pop	{r4, r5, r6, pc}
1000105e:	0010      	movs	r0, r2
10001060:	f001 fa9a 	bl	10002598 <panic>
10001064:	d000012c 	.word	0xd000012c

10001068 <running_on_fpga>:
10001068:	4b02      	ldr	r3, [pc, #8]	; (10001074 <running_on_fpga+0xc>)
1000106a:	6818      	ldr	r0, [r3, #0]
1000106c:	0780      	lsls	r0, r0, #30
1000106e:	0fc0      	lsrs	r0, r0, #31
10001070:	4770      	bx	lr
10001072:	46c0      	nop			; (mov r8, r8)
10001074:	4006c000 	.word	0x4006c000

10001078 <spin_locks_reset>:
10001078:	2100      	movs	r1, #0
1000107a:	4b04      	ldr	r3, [pc, #16]	; (1000108c <spin_locks_reset+0x14>)
1000107c:	4a04      	ldr	r2, [pc, #16]	; (10001090 <spin_locks_reset+0x18>)
1000107e:	f3bf 8f5f 	dmb	sy
10001082:	c302      	stmia	r3!, {r1}
10001084:	4293      	cmp	r3, r2
10001086:	d1fa      	bne.n	1000107e <spin_locks_reset+0x6>
10001088:	4770      	bx	lr
1000108a:	46c0      	nop			; (mov r8, r8)
1000108c:	d0000100 	.word	0xd0000100
10001090:	d0000180 	.word	0xd0000180

10001094 <next_striped_spin_lock_num>:
10001094:	4a04      	ldr	r2, [pc, #16]	; (100010a8 <next_striped_spin_lock_num+0x14>)
10001096:	7810      	ldrb	r0, [r2, #0]
10001098:	1c43      	adds	r3, r0, #1
1000109a:	b2db      	uxtb	r3, r3
1000109c:	2b17      	cmp	r3, #23
1000109e:	d900      	bls.n	100010a2 <next_striped_spin_lock_num+0xe>
100010a0:	2310      	movs	r3, #16
100010a2:	7013      	strb	r3, [r2, #0]
100010a4:	4770      	bx	lr
100010a6:	46c0      	nop			; (mov r8, r8)
100010a8:	200002c0 	.word	0x200002c0

100010ac <irq_set_enabled>:
100010ac:	2301      	movs	r3, #1
100010ae:	4083      	lsls	r3, r0
100010b0:	2900      	cmp	r1, #0
100010b2:	d004      	beq.n	100010be <irq_set_enabled+0x12>
100010b4:	4a03      	ldr	r2, [pc, #12]	; (100010c4 <irq_set_enabled+0x18>)
100010b6:	6013      	str	r3, [r2, #0]
100010b8:	4a03      	ldr	r2, [pc, #12]	; (100010c8 <irq_set_enabled+0x1c>)
100010ba:	6013      	str	r3, [r2, #0]
100010bc:	4770      	bx	lr
100010be:	4a03      	ldr	r2, [pc, #12]	; (100010cc <irq_set_enabled+0x20>)
100010c0:	6013      	str	r3, [r2, #0]
100010c2:	e7fb      	b.n	100010bc <irq_set_enabled+0x10>
100010c4:	e000e280 	.word	0xe000e280
100010c8:	e000e100 	.word	0xe000e100
100010cc:	e000e180 	.word	0xe000e180

100010d0 <irq_get_vtable_handler>:
100010d0:	4b02      	ldr	r3, [pc, #8]	; (100010dc <irq_get_vtable_handler+0xc>)
100010d2:	3010      	adds	r0, #16
100010d4:	689b      	ldr	r3, [r3, #8]
100010d6:	0080      	lsls	r0, r0, #2
100010d8:	58c0      	ldr	r0, [r0, r3]
100010da:	4770      	bx	lr
100010dc:	e000ed00 	.word	0xe000ed00

100010e0 <irq_set_exclusive_handler>:
100010e0:	b570      	push	{r4, r5, r6, lr}
100010e2:	000d      	movs	r5, r1
100010e4:	f3ef 8610 	mrs	r6, PRIMASK
100010e8:	b672      	cpsid	i
100010ea:	4a0f      	ldr	r2, [pc, #60]	; (10001128 <irq_set_exclusive_handler+0x48>)
100010ec:	6813      	ldr	r3, [r2, #0]
100010ee:	2b00      	cmp	r3, #0
100010f0:	d0fc      	beq.n	100010ec <irq_set_exclusive_handler+0xc>
100010f2:	f3bf 8f5f 	dmb	sy
100010f6:	4b0d      	ldr	r3, [pc, #52]	; (1000112c <irq_set_exclusive_handler+0x4c>)
100010f8:	3010      	adds	r0, #16
100010fa:	689b      	ldr	r3, [r3, #8]
100010fc:	0084      	lsls	r4, r0, #2
100010fe:	591b      	ldr	r3, [r3, r4]
10001100:	4a0b      	ldr	r2, [pc, #44]	; (10001130 <irq_set_exclusive_handler+0x50>)
10001102:	4293      	cmp	r3, r2
10001104:	d003      	beq.n	1000110e <irq_set_exclusive_handler+0x2e>
10001106:	429d      	cmp	r5, r3
10001108:	d001      	beq.n	1000110e <irq_set_exclusive_handler+0x2e>
1000110a:	f001 fa5d 	bl	100025c8 <hard_assertion_failure>
1000110e:	4b07      	ldr	r3, [pc, #28]	; (1000112c <irq_set_exclusive_handler+0x4c>)
10001110:	689b      	ldr	r3, [r3, #8]
10001112:	511d      	str	r5, [r3, r4]
10001114:	f3bf 8f5f 	dmb	sy
10001118:	f3bf 8f5f 	dmb	sy
1000111c:	2200      	movs	r2, #0
1000111e:	4b02      	ldr	r3, [pc, #8]	; (10001128 <irq_set_exclusive_handler+0x48>)
10001120:	601a      	str	r2, [r3, #0]
10001122:	f386 8810 	msr	PRIMASK, r6
10001126:	bd70      	pop	{r4, r5, r6, pc}
10001128:	d0000124 	.word	0xd0000124
1000112c:	e000ed00 	.word	0xe000ed00
10001130:	100001cd 	.word	0x100001cd

10001134 <irq_add_shared_handler>:
10001134:	b5f0      	push	{r4, r5, r6, r7, lr}
10001136:	464e      	mov	r6, r9
10001138:	4645      	mov	r5, r8
1000113a:	46de      	mov	lr, fp
1000113c:	4657      	mov	r7, sl
1000113e:	b5e0      	push	{r5, r6, r7, lr}
10001140:	b083      	sub	sp, #12
10001142:	0006      	movs	r6, r0
10001144:	9100      	str	r1, [sp, #0]
10001146:	4690      	mov	r8, r2
10001148:	f3ef 8b10 	mrs	fp, PRIMASK
1000114c:	b672      	cpsid	i
1000114e:	4a66      	ldr	r2, [pc, #408]	; (100012e8 <irq_add_shared_handler+0x1b4>)
10001150:	6813      	ldr	r3, [r2, #0]
10001152:	2b00      	cmp	r3, #0
10001154:	d0fc      	beq.n	10001150 <irq_add_shared_handler+0x1c>
10001156:	f3bf 8f5f 	dmb	sy
1000115a:	2500      	movs	r5, #0
1000115c:	4b63      	ldr	r3, [pc, #396]	; (100012ec <irq_add_shared_handler+0x1b8>)
1000115e:	575d      	ldrsb	r5, [r3, r5]
10001160:	469a      	mov	sl, r3
10001162:	2d00      	cmp	r5, #0
10001164:	da00      	bge.n	10001168 <irq_add_shared_handler+0x34>
10001166:	e07a      	b.n	1000125e <irq_add_shared_handler+0x12a>
10001168:	4652      	mov	r2, sl
1000116a:	006b      	lsls	r3, r5, #1
1000116c:	4c60      	ldr	r4, [pc, #384]	; (100012f0 <irq_add_shared_handler+0x1bc>)
1000116e:	195f      	adds	r7, r3, r5
10001170:	00bf      	lsls	r7, r7, #2
10001172:	9301      	str	r3, [sp, #4]
10001174:	19e3      	adds	r3, r4, r7
10001176:	4699      	mov	r9, r3
10001178:	799b      	ldrb	r3, [r3, #6]
1000117a:	3610      	adds	r6, #16
1000117c:	7013      	strb	r3, [r2, #0]
1000117e:	4b5d      	ldr	r3, [pc, #372]	; (100012f4 <irq_add_shared_handler+0x1c0>)
10001180:	00b6      	lsls	r6, r6, #2
10001182:	689b      	ldr	r3, [r3, #8]
10001184:	5999      	ldr	r1, [r3, r6]
10001186:	1b0b      	subs	r3, r1, r4
10001188:	2b2f      	cmp	r3, #47	; 0x2f
1000118a:	d933      	bls.n	100011f4 <irq_add_shared_handler+0xc0>
1000118c:	4b5a      	ldr	r3, [pc, #360]	; (100012f8 <irq_add_shared_handler+0x1c4>)
1000118e:	4299      	cmp	r1, r3
10001190:	d000      	beq.n	10001194 <irq_add_shared_handler+0x60>
10001192:	e07d      	b.n	10001290 <irq_add_shared_handler+0x15c>
10001194:	9b01      	ldr	r3, [sp, #4]
10001196:	3702      	adds	r7, #2
10001198:	469c      	mov	ip, r3
1000119a:	4b58      	ldr	r3, [pc, #352]	; (100012fc <irq_add_shared_handler+0x1c8>)
1000119c:	4465      	add	r5, ip
1000119e:	00ad      	lsls	r5, r5, #2
100011a0:	5363      	strh	r3, [r4, r5]
100011a2:	4b57      	ldr	r3, [pc, #348]	; (10001300 <irq_add_shared_handler+0x1cc>)
100011a4:	19e7      	adds	r7, r4, r7
100011a6:	3b04      	subs	r3, #4
100011a8:	1bdb      	subs	r3, r3, r7
100011aa:	4a56      	ldr	r2, [pc, #344]	; (10001304 <irq_add_shared_handler+0x1d0>)
100011ac:	051b      	lsls	r3, r3, #20
100011ae:	0d5b      	lsrs	r3, r3, #21
100011b0:	1965      	adds	r5, r4, r5
100011b2:	4313      	orrs	r3, r2
100011b4:	806b      	strh	r3, [r5, #2]
100011b6:	4b54      	ldr	r3, [pc, #336]	; (10001308 <irq_add_shared_handler+0x1d4>)
100011b8:	2101      	movs	r1, #1
100011ba:	80ab      	strh	r3, [r5, #4]
100011bc:	23ff      	movs	r3, #255	; 0xff
100011be:	71ab      	strb	r3, [r5, #6]
100011c0:	4643      	mov	r3, r8
100011c2:	71eb      	strb	r3, [r5, #7]
100011c4:	9b00      	ldr	r3, [sp, #0]
100011c6:	60ab      	str	r3, [r5, #8]
100011c8:	464b      	mov	r3, r9
100011ca:	430b      	orrs	r3, r1
100011cc:	0019      	movs	r1, r3
100011ce:	4b49      	ldr	r3, [pc, #292]	; (100012f4 <irq_add_shared_handler+0x1c0>)
100011d0:	689b      	ldr	r3, [r3, #8]
100011d2:	5199      	str	r1, [r3, r6]
100011d4:	f3bf 8f5f 	dmb	sy
100011d8:	f3bf 8f5f 	dmb	sy
100011dc:	2200      	movs	r2, #0
100011de:	4b42      	ldr	r3, [pc, #264]	; (100012e8 <irq_add_shared_handler+0x1b4>)
100011e0:	601a      	str	r2, [r3, #0]
100011e2:	f38b 8810 	msr	PRIMASK, fp
100011e6:	b003      	add	sp, #12
100011e8:	bcf0      	pop	{r4, r5, r6, r7}
100011ea:	46bb      	mov	fp, r7
100011ec:	46b2      	mov	sl, r6
100011ee:	46a9      	mov	r9, r5
100011f0:	46a0      	mov	r8, r4
100011f2:	bdf0      	pop	{r4, r5, r6, r7, pc}
100011f4:	2001      	movs	r0, #1
100011f6:	000a      	movs	r2, r1
100011f8:	4382      	bics	r2, r0
100011fa:	79d3      	ldrb	r3, [r2, #7]
100011fc:	4543      	cmp	r3, r8
100011fe:	d94a      	bls.n	10001296 <irq_add_shared_handler+0x162>
10001200:	46bc      	mov	ip, r7
10001202:	4647      	mov	r7, r8
10001204:	4688      	mov	r8, r1
10001206:	e007      	b.n	10001218 <irq_add_shared_handler+0xe4>
10001208:	0058      	lsls	r0, r3, #1
1000120a:	18c0      	adds	r0, r0, r3
1000120c:	0080      	lsls	r0, r0, #2
1000120e:	1820      	adds	r0, r4, r0
10001210:	79c1      	ldrb	r1, [r0, #7]
10001212:	42b9      	cmp	r1, r7
10001214:	d929      	bls.n	1000126a <irq_add_shared_handler+0x136>
10001216:	0002      	movs	r2, r0
10001218:	2306      	movs	r3, #6
1000121a:	56d3      	ldrsb	r3, [r2, r3]
1000121c:	2b00      	cmp	r3, #0
1000121e:	daf3      	bge.n	10001208 <irq_add_shared_handler+0xd4>
10001220:	469a      	mov	sl, r3
10001222:	4641      	mov	r1, r8
10001224:	1d13      	adds	r3, r2, #4
10001226:	46b8      	mov	r8, r7
10001228:	27bd      	movs	r7, #189	; 0xbd
1000122a:	469c      	mov	ip, r3
1000122c:	023f      	lsls	r7, r7, #8
1000122e:	4648      	mov	r0, r9
10001230:	4663      	mov	r3, ip
10001232:	3804      	subs	r0, #4
10001234:	1ac0      	subs	r0, r0, r3
10001236:	0500      	lsls	r0, r0, #20
10001238:	4b32      	ldr	r3, [pc, #200]	; (10001304 <irq_add_shared_handler+0x1d0>)
1000123a:	0d40      	lsrs	r0, r0, #21
1000123c:	4318      	orrs	r0, r3
1000123e:	9b01      	ldr	r3, [sp, #4]
10001240:	8090      	strh	r0, [r2, #4]
10001242:	7195      	strb	r5, [r2, #6]
10001244:	195a      	adds	r2, r3, r5
10001246:	4653      	mov	r3, sl
10001248:	0092      	lsls	r2, r2, #2
1000124a:	18a4      	adds	r4, r4, r2
1000124c:	71a3      	strb	r3, [r4, #6]
1000124e:	4643      	mov	r3, r8
10001250:	4a2e      	ldr	r2, [pc, #184]	; (1000130c <irq_add_shared_handler+0x1d8>)
10001252:	71e3      	strb	r3, [r4, #7]
10001254:	9b00      	ldr	r3, [sp, #0]
10001256:	6022      	str	r2, [r4, #0]
10001258:	80a7      	strh	r7, [r4, #4]
1000125a:	60a3      	str	r3, [r4, #8]
1000125c:	e7b7      	b.n	100011ce <irq_add_shared_handler+0x9a>
1000125e:	f001 f9b3 	bl	100025c8 <hard_assertion_failure>
10001262:	2500      	movs	r5, #0
10001264:	4653      	mov	r3, sl
10001266:	575d      	ldrsb	r5, [r3, r5]
10001268:	e77e      	b.n	10001168 <irq_add_shared_handler+0x34>
1000126a:	469a      	mov	sl, r3
1000126c:	4641      	mov	r1, r8
1000126e:	1d13      	adds	r3, r2, #4
10001270:	46b8      	mov	r8, r7
10001272:	4667      	mov	r7, ip
10001274:	469c      	mov	ip, r3
10001276:	8890      	ldrh	r0, [r2, #4]
10001278:	3704      	adds	r7, #4
1000127a:	0540      	lsls	r0, r0, #21
1000127c:	1500      	asrs	r0, r0, #20
1000127e:	19e7      	adds	r7, r4, r7
10001280:	4460      	add	r0, ip
10001282:	1bc0      	subs	r0, r0, r7
10001284:	27e0      	movs	r7, #224	; 0xe0
10001286:	0500      	lsls	r0, r0, #20
10001288:	0d40      	lsrs	r0, r0, #21
1000128a:	023f      	lsls	r7, r7, #8
1000128c:	4307      	orrs	r7, r0
1000128e:	e7ce      	b.n	1000122e <irq_add_shared_handler+0xfa>
10001290:	f001 f99a 	bl	100025c8 <hard_assertion_failure>
10001294:	e77e      	b.n	10001194 <irq_add_shared_handler+0x60>
10001296:	0013      	movs	r3, r2
10001298:	491d      	ldr	r1, [pc, #116]	; (10001310 <irq_add_shared_handler+0x1dc>)
1000129a:	1b1b      	subs	r3, r3, r4
1000129c:	415b      	adcs	r3, r3
1000129e:	4359      	muls	r1, r3
100012a0:	0d09      	lsrs	r1, r1, #20
100012a2:	4b16      	ldr	r3, [pc, #88]	; (100012fc <irq_add_shared_handler+0x1c8>)
100012a4:	1cbd      	adds	r5, r7, #2
100012a6:	53e3      	strh	r3, [r4, r7]
100012a8:	4b15      	ldr	r3, [pc, #84]	; (10001300 <irq_add_shared_handler+0x1cc>)
100012aa:	1965      	adds	r5, r4, r5
100012ac:	3b04      	subs	r3, #4
100012ae:	1b5b      	subs	r3, r3, r5
100012b0:	051b      	lsls	r3, r3, #20
100012b2:	4d14      	ldr	r5, [pc, #80]	; (10001304 <irq_add_shared_handler+0x1d0>)
100012b4:	0d5b      	lsrs	r3, r3, #21
100012b6:	432b      	orrs	r3, r5
100012b8:	46ac      	mov	ip, r5
100012ba:	464d      	mov	r5, r9
100012bc:	806b      	strh	r3, [r5, #2]
100012be:	4665      	mov	r5, ip
100012c0:	3704      	adds	r7, #4
100012c2:	1f13      	subs	r3, r2, #4
100012c4:	19e7      	adds	r7, r4, r7
100012c6:	1bdb      	subs	r3, r3, r7
100012c8:	051b      	lsls	r3, r3, #20
100012ca:	0d5b      	lsrs	r3, r3, #21
100012cc:	431d      	orrs	r5, r3
100012ce:	464b      	mov	r3, r9
100012d0:	7199      	strb	r1, [r3, #6]
100012d2:	4641      	mov	r1, r8
100012d4:	71d9      	strb	r1, [r3, #7]
100012d6:	9900      	ldr	r1, [sp, #0]
100012d8:	809d      	strh	r5, [r3, #4]
100012da:	6099      	str	r1, [r3, #8]
100012dc:	4649      	mov	r1, r9
100012de:	4b0b      	ldr	r3, [pc, #44]	; (1000130c <irq_add_shared_handler+0x1d8>)
100012e0:	4301      	orrs	r1, r0
100012e2:	6013      	str	r3, [r2, #0]
100012e4:	e773      	b.n	100011ce <irq_add_shared_handler+0x9a>
100012e6:	46c0      	nop			; (mov r8, r8)
100012e8:	d0000124 	.word	0xd0000124
100012ec:	20001306 	.word	0x20001306
100012f0:	200002c4 	.word	0x200002c4
100012f4:	e000ed00 	.word	0xe000ed00
100012f8:	100001cd 	.word	0x100001cd
100012fc:	ffffa100 	.word	0xffffa100
10001300:	200002f4 	.word	0x200002f4
10001304:	ffffe000 	.word	0xffffe000
10001308:	ffffbd00 	.word	0xffffbd00
1000130c:	47804801 	.word	0x47804801
10001310:	0000aaaa 	.word	0x0000aaaa

10001314 <irq_remove_handler>:
10001314:	b5f0      	push	{r4, r5, r6, r7, lr}
10001316:	46de      	mov	lr, fp
10001318:	4657      	mov	r7, sl
1000131a:	464e      	mov	r6, r9
1000131c:	4645      	mov	r5, r8
1000131e:	b5e0      	push	{r5, r6, r7, lr}
10001320:	000c      	movs	r4, r1
10001322:	b083      	sub	sp, #12
10001324:	f3ef 8a10 	mrs	sl, PRIMASK
10001328:	b672      	cpsid	i
1000132a:	4a60      	ldr	r2, [pc, #384]	; (100014ac <irq_remove_handler+0x198>)
1000132c:	6813      	ldr	r3, [r2, #0]
1000132e:	2b00      	cmp	r3, #0
10001330:	d0fc      	beq.n	1000132c <irq_remove_handler+0x18>
10001332:	f3bf 8f5f 	dmb	sy
10001336:	2210      	movs	r2, #16
10001338:	4691      	mov	r9, r2
1000133a:	4481      	add	r9, r0
1000133c:	464a      	mov	r2, r9
1000133e:	4b5c      	ldr	r3, [pc, #368]	; (100014b0 <irq_remove_handler+0x19c>)
10001340:	0096      	lsls	r6, r2, #2
10001342:	689b      	ldr	r3, [r3, #8]
10001344:	599d      	ldr	r5, [r3, r6]
10001346:	4b5b      	ldr	r3, [pc, #364]	; (100014b4 <irq_remove_handler+0x1a0>)
10001348:	4698      	mov	r8, r3
1000134a:	429d      	cmp	r5, r3
1000134c:	d005      	beq.n	1000135a <irq_remove_handler+0x46>
1000134e:	42a5      	cmp	r5, r4
10001350:	d016      	beq.n	10001380 <irq_remove_handler+0x6c>
10001352:	4f59      	ldr	r7, [pc, #356]	; (100014b8 <irq_remove_handler+0x1a4>)
10001354:	1beb      	subs	r3, r5, r7
10001356:	2b2f      	cmp	r3, #47	; 0x2f
10001358:	d914      	bls.n	10001384 <irq_remove_handler+0x70>
1000135a:	4b55      	ldr	r3, [pc, #340]	; (100014b0 <irq_remove_handler+0x19c>)
1000135c:	689b      	ldr	r3, [r3, #8]
1000135e:	519d      	str	r5, [r3, r6]
10001360:	f3bf 8f5f 	dmb	sy
10001364:	f3bf 8f5f 	dmb	sy
10001368:	2200      	movs	r2, #0
1000136a:	4b50      	ldr	r3, [pc, #320]	; (100014ac <irq_remove_handler+0x198>)
1000136c:	601a      	str	r2, [r3, #0]
1000136e:	f38a 8810 	msr	PRIMASK, sl
10001372:	b003      	add	sp, #12
10001374:	bcf0      	pop	{r4, r5, r6, r7}
10001376:	46bb      	mov	fp, r7
10001378:	46b2      	mov	sl, r6
1000137a:	46a9      	mov	r9, r5
1000137c:	46a0      	mov	r8, r4
1000137e:	bdf0      	pop	{r4, r5, r6, r7, pc}
10001380:	001d      	movs	r5, r3
10001382:	e7ea      	b.n	1000135a <irq_remove_handler+0x46>
10001384:	2301      	movs	r3, #1
10001386:	4083      	lsls	r3, r0
10001388:	469b      	mov	fp, r3
1000138a:	465a      	mov	r2, fp
1000138c:	4b4b      	ldr	r3, [pc, #300]	; (100014bc <irq_remove_handler+0x1a8>)
1000138e:	681b      	ldr	r3, [r3, #0]
10001390:	401a      	ands	r2, r3
10001392:	9200      	str	r2, [sp, #0]
10001394:	465a      	mov	r2, fp
10001396:	4b4a      	ldr	r3, [pc, #296]	; (100014c0 <irq_remove_handler+0x1ac>)
10001398:	601a      	str	r2, [r3, #0]
1000139a:	f3bf 8f5f 	dmb	sy
1000139e:	f7fe ff62 	bl	10000266 <__get_current_exception>
100013a2:	1e03      	subs	r3, r0, #0
100013a4:	9001      	str	r0, [sp, #4]
100013a6:	d11d      	bne.n	100013e4 <irq_remove_handler+0xd0>
100013a8:	002a      	movs	r2, r5
100013aa:	3301      	adds	r3, #1
100013ac:	439a      	bics	r2, r3
100013ae:	6890      	ldr	r0, [r2, #8]
100013b0:	4284      	cmp	r4, r0
100013b2:	d108      	bne.n	100013c6 <irq_remove_handler+0xb2>
100013b4:	e071      	b.n	1000149a <irq_remove_handler+0x186>
100013b6:	004b      	lsls	r3, r1, #1
100013b8:	185b      	adds	r3, r3, r1
100013ba:	009b      	lsls	r3, r3, #2
100013bc:	18fb      	adds	r3, r7, r3
100013be:	6898      	ldr	r0, [r3, #8]
100013c0:	42a0      	cmp	r0, r4
100013c2:	d045      	beq.n	10001450 <irq_remove_handler+0x13c>
100013c4:	001a      	movs	r2, r3
100013c6:	2106      	movs	r1, #6
100013c8:	5651      	ldrsb	r1, [r2, r1]
100013ca:	2900      	cmp	r1, #0
100013cc:	daf3      	bge.n	100013b6 <irq_remove_handler+0xa2>
100013ce:	4284      	cmp	r4, r0
100013d0:	d06a      	beq.n	100014a8 <irq_remove_handler+0x194>
100013d2:	9b00      	ldr	r3, [sp, #0]
100013d4:	2b00      	cmp	r3, #0
100013d6:	d034      	beq.n	10001442 <irq_remove_handler+0x12e>
100013d8:	465a      	mov	r2, fp
100013da:	4b3a      	ldr	r3, [pc, #232]	; (100014c4 <irq_remove_handler+0x1b0>)
100013dc:	601a      	str	r2, [r3, #0]
100013de:	4b37      	ldr	r3, [pc, #220]	; (100014bc <irq_remove_handler+0x1a8>)
100013e0:	601a      	str	r2, [r3, #0]
100013e2:	e7ba      	b.n	1000135a <irq_remove_handler+0x46>
100013e4:	4581      	cmp	r9, r0
100013e6:	d130      	bne.n	1000144a <irq_remove_handler+0x136>
100013e8:	002a      	movs	r2, r5
100013ea:	2301      	movs	r3, #1
100013ec:	439a      	bics	r2, r3
100013ee:	6890      	ldr	r0, [r2, #8]
100013f0:	4284      	cmp	r4, r0
100013f2:	d1e8      	bne.n	100013c6 <irq_remove_handler+0xb2>
100013f4:	2106      	movs	r1, #6
100013f6:	5651      	ldrsb	r1, [r2, r1]
100013f8:	0013      	movs	r3, r2
100013fa:	2900      	cmp	r1, #0
100013fc:	db40      	blt.n	10001480 <irq_remove_handler+0x16c>
100013fe:	004a      	lsls	r2, r1, #1
10001400:	1850      	adds	r0, r2, r1
10001402:	0080      	lsls	r0, r0, #2
10001404:	183c      	adds	r4, r7, r0
10001406:	4680      	mov	r8, r0
10001408:	68a0      	ldr	r0, [r4, #8]
1000140a:	6098      	str	r0, [r3, #8]
1000140c:	79e0      	ldrb	r0, [r4, #7]
1000140e:	71d8      	strb	r0, [r3, #7]
10001410:	2006      	movs	r0, #6
10001412:	5620      	ldrsb	r0, [r4, r0]
10001414:	7198      	strb	r0, [r3, #6]
10001416:	2800      	cmp	r0, #0
10001418:	db2f      	blt.n	1000147a <irq_remove_handler+0x166>
1000141a:	88a4      	ldrh	r4, [r4, #4]
1000141c:	1af8      	subs	r0, r7, r3
1000141e:	0564      	lsls	r4, r4, #21
10001420:	1524      	asrs	r4, r4, #20
10001422:	4444      	add	r4, r8
10001424:	1900      	adds	r0, r0, r4
10001426:	24e0      	movs	r4, #224	; 0xe0
10001428:	0500      	lsls	r0, r0, #20
1000142a:	0d40      	lsrs	r0, r0, #21
1000142c:	0224      	lsls	r4, r4, #8
1000142e:	4320      	orrs	r0, r4
10001430:	8098      	strh	r0, [r3, #4]
10001432:	1853      	adds	r3, r2, r1
10001434:	4a24      	ldr	r2, [pc, #144]	; (100014c8 <irq_remove_handler+0x1b4>)
10001436:	009b      	lsls	r3, r3, #2
10001438:	7810      	ldrb	r0, [r2, #0]
1000143a:	18fb      	adds	r3, r7, r3
1000143c:	7198      	strb	r0, [r3, #6]
1000143e:	7011      	strb	r1, [r2, #0]
10001440:	e7c7      	b.n	100013d2 <irq_remove_handler+0xbe>
10001442:	465a      	mov	r2, fp
10001444:	4b1e      	ldr	r3, [pc, #120]	; (100014c0 <irq_remove_handler+0x1ac>)
10001446:	601a      	str	r2, [r3, #0]
10001448:	e787      	b.n	1000135a <irq_remove_handler+0x46>
1000144a:	f001 f8bd 	bl	100025c8 <hard_assertion_failure>
1000144e:	e7cb      	b.n	100013e8 <irq_remove_handler+0xd4>
10001450:	2106      	movs	r1, #6
10001452:	5659      	ldrsb	r1, [r3, r1]
10001454:	2900      	cmp	r1, #0
10001456:	dad2      	bge.n	100013fe <irq_remove_handler+0xea>
10001458:	9901      	ldr	r1, [sp, #4]
1000145a:	2900      	cmp	r1, #0
1000145c:	d110      	bne.n	10001480 <irq_remove_handler+0x16c>
1000145e:	31ff      	adds	r1, #255	; 0xff
10001460:	7191      	strb	r1, [r2, #6]
10001462:	491a      	ldr	r1, [pc, #104]	; (100014cc <irq_remove_handler+0x1b8>)
10001464:	8091      	strh	r1, [r2, #4]
10001466:	4918      	ldr	r1, [pc, #96]	; (100014c8 <irq_remove_handler+0x1b4>)
10001468:	780a      	ldrb	r2, [r1, #0]
1000146a:	719a      	strb	r2, [r3, #6]
1000146c:	4a18      	ldr	r2, [pc, #96]	; (100014d0 <irq_remove_handler+0x1bc>)
1000146e:	1bdb      	subs	r3, r3, r7
10001470:	415b      	adcs	r3, r3
10001472:	435a      	muls	r2, r3
10001474:	0d12      	lsrs	r2, r2, #20
10001476:	700a      	strb	r2, [r1, #0]
10001478:	e7ab      	b.n	100013d2 <irq_remove_handler+0xbe>
1000147a:	20bd      	movs	r0, #189	; 0xbd
1000147c:	0200      	lsls	r0, r0, #8
1000147e:	e7d7      	b.n	10001430 <irq_remove_handler+0x11c>
10001480:	4a14      	ldr	r2, [pc, #80]	; (100014d4 <irq_remove_handler+0x1c0>)
10001482:	4915      	ldr	r1, [pc, #84]	; (100014d8 <irq_remove_handler+0x1c4>)
10001484:	1ad2      	subs	r2, r2, r3
10001486:	3a08      	subs	r2, #8
10001488:	0250      	lsls	r0, r2, #9
1000148a:	0d40      	lsrs	r0, r0, #21
1000148c:	4301      	orrs	r1, r0
1000148e:	8099      	strh	r1, [r3, #4]
10001490:	4912      	ldr	r1, [pc, #72]	; (100014dc <irq_remove_handler+0x1c8>)
10001492:	0852      	lsrs	r2, r2, #1
10001494:	430a      	orrs	r2, r1
10001496:	80da      	strh	r2, [r3, #6]
10001498:	e79b      	b.n	100013d2 <irq_remove_handler+0xbe>
1000149a:	2106      	movs	r1, #6
1000149c:	5651      	ldrsb	r1, [r2, r1]
1000149e:	0013      	movs	r3, r2
100014a0:	2900      	cmp	r1, #0
100014a2:	daac      	bge.n	100013fe <irq_remove_handler+0xea>
100014a4:	4645      	mov	r5, r8
100014a6:	e7de      	b.n	10001466 <irq_remove_handler+0x152>
100014a8:	0013      	movs	r3, r2
100014aa:	e7d5      	b.n	10001458 <irq_remove_handler+0x144>
100014ac:	d0000124 	.word	0xd0000124
100014b0:	e000ed00 	.word	0xe000ed00
100014b4:	100001cd 	.word	0x100001cd
100014b8:	200002c4 	.word	0x200002c4
100014bc:	e000e100 	.word	0xe000e100
100014c0:	e000e180 	.word	0xe000e180
100014c4:	e000e280 	.word	0xe000e280
100014c8:	20001306 	.word	0x20001306
100014cc:	ffffbd00 	.word	0xffffbd00
100014d0:	0000aaaa 	.word	0x0000aaaa
100014d4:	200002fe 	.word	0x200002fe
100014d8:	fffff000 	.word	0xfffff000
100014dc:	fffff800 	.word	0xfffff800

100014e0 <irq_add_tail_to_free_list>:
100014e0:	b5f8      	push	{r3, r4, r5, r6, r7, lr}
100014e2:	2501      	movs	r5, #1
100014e4:	0004      	movs	r4, r0
100014e6:	4305      	orrs	r5, r0
100014e8:	f7fe febd 	bl	10000266 <__get_current_exception>
100014ec:	f3ef 8c10 	mrs	ip, PRIMASK
100014f0:	b672      	cpsid	i
100014f2:	4a21      	ldr	r2, [pc, #132]	; (10001578 <irq_add_tail_to_free_list+0x98>)
100014f4:	6813      	ldr	r3, [r2, #0]
100014f6:	2b00      	cmp	r3, #0
100014f8:	d0fc      	beq.n	100014f4 <irq_add_tail_to_free_list+0x14>
100014fa:	f3bf 8f5f 	dmb	sy
100014fe:	4e1f      	ldr	r6, [pc, #124]	; (1000157c <irq_add_tail_to_free_list+0x9c>)
10001500:	0021      	movs	r1, r4
10001502:	68b7      	ldr	r7, [r6, #8]
10001504:	4a1e      	ldr	r2, [pc, #120]	; (10001580 <irq_add_tail_to_free_list+0xa0>)
10001506:	4b1f      	ldr	r3, [pc, #124]	; (10001584 <irq_add_tail_to_free_list+0xa4>)
10001508:	1a89      	subs	r1, r1, r2
1000150a:	4149      	adcs	r1, r1
1000150c:	434b      	muls	r3, r1
1000150e:	0d1b      	lsrs	r3, r3, #20
10001510:	b259      	sxtb	r1, r3
10001512:	0083      	lsls	r3, r0, #2
10001514:	58f8      	ldr	r0, [r7, r3]
10001516:	42a8      	cmp	r0, r5
10001518:	d01c      	beq.n	10001554 <irq_add_tail_to_free_list+0x74>
1000151a:	2306      	movs	r3, #6
1000151c:	56d3      	ldrsb	r3, [r2, r3]
1000151e:	428b      	cmp	r3, r1
10001520:	d01c      	beq.n	1000155c <irq_add_tail_to_free_list+0x7c>
10001522:	2312      	movs	r3, #18
10001524:	56d3      	ldrsb	r3, [r2, r3]
10001526:	428b      	cmp	r3, r1
10001528:	d022      	beq.n	10001570 <irq_add_tail_to_free_list+0x90>
1000152a:	231e      	movs	r3, #30
1000152c:	56d3      	ldrsb	r3, [r2, r3]
1000152e:	428b      	cmp	r3, r1
10001530:	d020      	beq.n	10001574 <irq_add_tail_to_free_list+0x94>
10001532:	232a      	movs	r3, #42	; 0x2a
10001534:	56d3      	ldrsb	r3, [r2, r3]
10001536:	2003      	movs	r0, #3
10001538:	428b      	cmp	r3, r1
1000153a:	d010      	beq.n	1000155e <irq_add_tail_to_free_list+0x7e>
1000153c:	4b12      	ldr	r3, [pc, #72]	; (10001588 <irq_add_tail_to_free_list+0xa8>)
1000153e:	781a      	ldrb	r2, [r3, #0]
10001540:	7019      	strb	r1, [r3, #0]
10001542:	71a2      	strb	r2, [r4, #6]
10001544:	f3bf 8f5f 	dmb	sy
10001548:	2200      	movs	r2, #0
1000154a:	4b0b      	ldr	r3, [pc, #44]	; (10001578 <irq_add_tail_to_free_list+0x98>)
1000154c:	601a      	str	r2, [r3, #0]
1000154e:	f38c 8810 	msr	PRIMASK, ip
10001552:	bdf8      	pop	{r3, r4, r5, r6, r7, pc}
10001554:	68b2      	ldr	r2, [r6, #8]
10001556:	480d      	ldr	r0, [pc, #52]	; (1000158c <irq_add_tail_to_free_list+0xac>)
10001558:	50d0      	str	r0, [r2, r3]
1000155a:	e7ef      	b.n	1000153c <irq_add_tail_to_free_list+0x5c>
1000155c:	2000      	movs	r0, #0
1000155e:	0043      	lsls	r3, r0, #1
10001560:	181b      	adds	r3, r3, r0
10001562:	009b      	lsls	r3, r3, #2
10001564:	18d2      	adds	r2, r2, r3
10001566:	23ff      	movs	r3, #255	; 0xff
10001568:	7193      	strb	r3, [r2, #6]
1000156a:	4b09      	ldr	r3, [pc, #36]	; (10001590 <irq_add_tail_to_free_list+0xb0>)
1000156c:	8093      	strh	r3, [r2, #4]
1000156e:	e7e5      	b.n	1000153c <irq_add_tail_to_free_list+0x5c>
10001570:	2001      	movs	r0, #1
10001572:	e7f4      	b.n	1000155e <irq_add_tail_to_free_list+0x7e>
10001574:	2002      	movs	r0, #2
10001576:	e7f2      	b.n	1000155e <irq_add_tail_to_free_list+0x7e>
10001578:	d0000124 	.word	0xd0000124
1000157c:	e000ed00 	.word	0xe000ed00
10001580:	200002c4 	.word	0x200002c4
10001584:	0000aaaa 	.word	0x0000aaaa
10001588:	20001306 	.word	0x20001306
1000158c:	100001cd 	.word	0x100001cd
10001590:	ffffbd00 	.word	0xffffbd00

10001594 <irq_init_priorities>:
10001594:	4b05      	ldr	r3, [pc, #20]	; (100015ac <irq_init_priorities+0x18>)
10001596:	4a06      	ldr	r2, [pc, #24]	; (100015b0 <irq_init_priorities+0x1c>)
10001598:	6013      	str	r3, [r2, #0]
1000159a:	4a06      	ldr	r2, [pc, #24]	; (100015b4 <irq_init_priorities+0x20>)
1000159c:	6013      	str	r3, [r2, #0]
1000159e:	6053      	str	r3, [r2, #4]
100015a0:	6093      	str	r3, [r2, #8]
100015a2:	60d3      	str	r3, [r2, #12]
100015a4:	6113      	str	r3, [r2, #16]
100015a6:	6153      	str	r3, [r2, #20]
100015a8:	6193      	str	r3, [r2, #24]
100015aa:	4770      	bx	lr
100015ac:	80808080 	.word	0x80808080
100015b0:	e000e400 	.word	0xe000e400
100015b4:	e000e404 	.word	0xe000e404

100015b8 <lock_init>:
100015b8:	4b02      	ldr	r3, [pc, #8]	; (100015c4 <lock_init+0xc>)
100015ba:	469c      	mov	ip, r3
100015bc:	4461      	add	r1, ip
100015be:	0089      	lsls	r1, r1, #2
100015c0:	6001      	str	r1, [r0, #0]
100015c2:	4770      	bx	lr
100015c4:	34000040 	.word	0x34000040

100015c8 <timer_pool_entry_comparator>:
100015c8:	6883      	ldr	r3, [r0, #8]
100015ca:	480b      	ldr	r0, [pc, #44]	; (100015f8 <timer_pool_entry_comparator+0x30>)
100015cc:	b510      	push	{r4, lr}
100015ce:	4684      	mov	ip, r0
100015d0:	4461      	add	r1, ip
100015d2:	4462      	add	r2, ip
100015d4:	0112      	lsls	r2, r2, #4
100015d6:	0109      	lsls	r1, r1, #4
100015d8:	1859      	adds	r1, r3, r1
100015da:	189b      	adds	r3, r3, r2
100015dc:	685c      	ldr	r4, [r3, #4]
100015de:	684a      	ldr	r2, [r1, #4]
100015e0:	2001      	movs	r0, #1
100015e2:	4294      	cmp	r4, r2
100015e4:	d801      	bhi.n	100015ea <timer_pool_entry_comparator+0x22>
100015e6:	d002      	beq.n	100015ee <timer_pool_entry_comparator+0x26>
100015e8:	2000      	movs	r0, #0
100015ea:	b2c0      	uxtb	r0, r0
100015ec:	bd10      	pop	{r4, pc}
100015ee:	681a      	ldr	r2, [r3, #0]
100015f0:	680b      	ldr	r3, [r1, #0]
100015f2:	429a      	cmp	r2, r3
100015f4:	d8f9      	bhi.n	100015ea <timer_pool_entry_comparator+0x22>
100015f6:	e7f7      	b.n	100015e8 <timer_pool_entry_comparator+0x20>
100015f8:	0fffffff 	.word	0x0fffffff

100015fc <repeating_timer_callback>:
100015fc:	b510      	push	{r4, lr}
100015fe:	0008      	movs	r0, r1
10001600:	690b      	ldr	r3, [r1, #16]
10001602:	000c      	movs	r4, r1
10001604:	4798      	blx	r3
10001606:	2800      	cmp	r0, #0
10001608:	d002      	beq.n	10001610 <repeating_timer_callback+0x14>
1000160a:	6820      	ldr	r0, [r4, #0]
1000160c:	6861      	ldr	r1, [r4, #4]
1000160e:	bd10      	pop	{r4, pc}
10001610:	60e0      	str	r0, [r4, #12]
10001612:	2100      	movs	r1, #0
10001614:	2000      	movs	r0, #0
10001616:	e7fa      	b.n	1000160e <repeating_timer_callback+0x12>

10001618 <sleep_until_callback>:
10001618:	4b0a      	ldr	r3, [pc, #40]	; (10001644 <sleep_until_callback+0x2c>)
1000161a:	6819      	ldr	r1, [r3, #0]
1000161c:	f3ef 8010 	mrs	r0, PRIMASK
10001620:	b672      	cpsid	i
10001622:	680a      	ldr	r2, [r1, #0]
10001624:	2a00      	cmp	r2, #0
10001626:	d0fc      	beq.n	10001622 <sleep_until_callback+0xa>
10001628:	f3bf 8f5f 	dmb	sy
1000162c:	681b      	ldr	r3, [r3, #0]
1000162e:	f3bf 8f5f 	dmb	sy
10001632:	2200      	movs	r2, #0
10001634:	601a      	str	r2, [r3, #0]
10001636:	f380 8810 	msr	PRIMASK, r0
1000163a:	bf40      	sev
1000163c:	2000      	movs	r0, #0
1000163e:	2100      	movs	r1, #0
10001640:	4770      	bx	lr
10001642:	46c0      	nop			; (mov r8, r8)
10001644:	200012ec 	.word	0x200012ec

10001648 <add_alarm_under_lock.isra.0>:
10001648:	b5f8      	push	{r3, r4, r5, r6, r7, lr}
1000164a:	4657      	mov	r7, sl
1000164c:	4645      	mov	r5, r8
1000164e:	464e      	mov	r6, r9
10001650:	46de      	mov	lr, fp
10001652:	b5e0      	push	{r5, r6, r7, lr}
10001654:	4698      	mov	r8, r3
10001656:	ab0c      	add	r3, sp, #48	; 0x30
10001658:	781c      	ldrb	r4, [r3, #0]
1000165a:	ab0d      	add	r3, sp, #52	; 0x34
1000165c:	781b      	ldrb	r3, [r3, #0]
1000165e:	0007      	movs	r7, r0
10001660:	4691      	mov	r9, r2
10001662:	469a      	mov	sl, r3
10001664:	6805      	ldr	r5, [r0, #0]
10001666:	2c00      	cmp	r4, #0
10001668:	d15a      	bne.n	10001720 <add_alarm_under_lock.isra.0+0xd8>
1000166a:	7bac      	ldrb	r4, [r5, #14]
1000166c:	2c00      	cmp	r4, #0
1000166e:	d03b      	beq.n	100016e8 <add_alarm_under_lock.isra.0+0xa0>
10001670:	0066      	lsls	r6, r4, #1
10001672:	6829      	ldr	r1, [r5, #0]
10001674:	1936      	adds	r6, r6, r4
10001676:	3e03      	subs	r6, #3
10001678:	1989      	adds	r1, r1, r6
1000167a:	784b      	ldrb	r3, [r1, #1]
1000167c:	73ab      	strb	r3, [r5, #14]
1000167e:	2b00      	cmp	r3, #0
10001680:	d100      	bne.n	10001684 <add_alarm_under_lock.isra.0+0x3c>
10001682:	73eb      	strb	r3, [r5, #15]
10001684:	2300      	movs	r3, #0
10001686:	708b      	strb	r3, [r1, #2]
10001688:	704b      	strb	r3, [r1, #1]
1000168a:	700b      	strb	r3, [r1, #0]
1000168c:	4b2b      	ldr	r3, [pc, #172]	; (1000173c <add_alarm_under_lock.isra.0+0xf4>)
1000168e:	18e2      	adds	r2, r4, r3
10001690:	68bb      	ldr	r3, [r7, #8]
10001692:	0112      	lsls	r2, r2, #4
10001694:	189b      	adds	r3, r3, r2
10001696:	464a      	mov	r2, r9
10001698:	601a      	str	r2, [r3, #0]
1000169a:	4642      	mov	r2, r8
1000169c:	605a      	str	r2, [r3, #4]
1000169e:	9a0a      	ldr	r2, [sp, #40]	; 0x28
100016a0:	609a      	str	r2, [r3, #8]
100016a2:	9a0b      	ldr	r2, [sp, #44]	; 0x2c
100016a4:	60da      	str	r2, [r3, #12]
100016a6:	2300      	movs	r3, #0
100016a8:	708b      	strb	r3, [r1, #2]
100016aa:	704b      	strb	r3, [r1, #1]
100016ac:	700b      	strb	r3, [r1, #0]
100016ae:	7b6b      	ldrb	r3, [r5, #13]
100016b0:	469b      	mov	fp, r3
100016b2:	2b00      	cmp	r3, #0
100016b4:	d027      	beq.n	10001706 <add_alarm_under_lock.isra.0+0xbe>
100016b6:	0022      	movs	r2, r4
100016b8:	686b      	ldr	r3, [r5, #4]
100016ba:	4659      	mov	r1, fp
100016bc:	68a8      	ldr	r0, [r5, #8]
100016be:	4798      	blx	r3
100016c0:	465b      	mov	r3, fp
100016c2:	005b      	lsls	r3, r3, #1
100016c4:	445b      	add	r3, fp
100016c6:	682a      	ldr	r2, [r5, #0]
100016c8:	3b03      	subs	r3, #3
100016ca:	2800      	cmp	r0, #0
100016cc:	d012      	beq.n	100016f4 <add_alarm_under_lock.isra.0+0xac>
100016ce:	4658      	mov	r0, fp
100016d0:	1996      	adds	r6, r2, r6
100016d2:	70b0      	strb	r0, [r6, #2]
100016d4:	18d1      	adds	r1, r2, r3
100016d6:	5cd3      	ldrb	r3, [r2, r3]
100016d8:	2b00      	cmp	r3, #0
100016da:	d000      	beq.n	100016de <add_alarm_under_lock.isra.0+0x96>
100016dc:	7073      	strb	r3, [r6, #1]
100016de:	465b      	mov	r3, fp
100016e0:	700c      	strb	r4, [r1, #0]
100016e2:	736b      	strb	r3, [r5, #13]
100016e4:	455c      	cmp	r4, fp
100016e6:	d00f      	beq.n	10001708 <add_alarm_under_lock.isra.0+0xc0>
100016e8:	bcf0      	pop	{r4, r5, r6, r7}
100016ea:	46bb      	mov	fp, r7
100016ec:	46b2      	mov	sl, r6
100016ee:	46a9      	mov	r9, r5
100016f0:	46a0      	mov	r8, r4
100016f2:	bdf8      	pop	{r3, r4, r5, r6, r7, pc}
100016f4:	18d3      	adds	r3, r2, r3
100016f6:	709c      	strb	r4, [r3, #2]
100016f8:	1991      	adds	r1, r2, r6
100016fa:	5d92      	ldrb	r2, [r2, r6]
100016fc:	2a00      	cmp	r2, #0
100016fe:	d000      	beq.n	10001702 <add_alarm_under_lock.isra.0+0xba>
10001700:	705a      	strb	r2, [r3, #1]
10001702:	465b      	mov	r3, fp
10001704:	700b      	strb	r3, [r1, #0]
10001706:	736c      	strb	r4, [r5, #13]
10001708:	464a      	mov	r2, r9
1000170a:	4643      	mov	r3, r8
1000170c:	7d38      	ldrb	r0, [r7, #20]
1000170e:	f000 fc0f 	bl	10001f30 <hardware_alarm_set_target>
10001712:	1e05      	subs	r5, r0, #0
10001714:	d10a      	bne.n	1000172c <add_alarm_under_lock.isra.0+0xe4>
10001716:	9b0e      	ldr	r3, [sp, #56]	; 0x38
10001718:	2b00      	cmp	r3, #0
1000171a:	d0e5      	beq.n	100016e8 <add_alarm_under_lock.isra.0+0xa0>
1000171c:	701d      	strb	r5, [r3, #0]
1000171e:	e7e3      	b.n	100016e8 <add_alarm_under_lock.isra.0+0xa0>
10001720:	0066      	lsls	r6, r4, #1
10001722:	6829      	ldr	r1, [r5, #0]
10001724:	1936      	adds	r6, r6, r4
10001726:	3e03      	subs	r6, #3
10001728:	1989      	adds	r1, r1, r6
1000172a:	e7af      	b.n	1000168c <add_alarm_under_lock.isra.0+0x44>
1000172c:	4653      	mov	r3, sl
1000172e:	2b00      	cmp	r3, #0
10001730:	d1f1      	bne.n	10001716 <add_alarm_under_lock.isra.0+0xce>
10001732:	0021      	movs	r1, r4
10001734:	6838      	ldr	r0, [r7, #0]
10001736:	f000 fe45 	bl	100023c4 <ph_remove_and_free_node>
1000173a:	e7ec      	b.n	10001716 <add_alarm_under_lock.isra.0+0xce>
1000173c:	0fffffff 	.word	0x0fffffff

10001740 <alarm_pool_alarm_callback>:
10001740:	b5f0      	push	{r4, r5, r6, r7, lr}
10001742:	46de      	mov	lr, fp
10001744:	4657      	mov	r7, sl
10001746:	464e      	mov	r6, r9
10001748:	4645      	mov	r5, r8
1000174a:	2300      	movs	r3, #0
1000174c:	b5e0      	push	{r5, r6, r7, lr}
1000174e:	b08d      	sub	sp, #52	; 0x34
10001750:	930a      	str	r3, [sp, #40]	; 0x28
10001752:	4b6a      	ldr	r3, [pc, #424]	; (100018fc <alarm_pool_alarm_callback+0x1bc>)
10001754:	0082      	lsls	r2, r0, #2
10001756:	58d7      	ldr	r7, [r2, r3]
10001758:	2300      	movs	r3, #0
1000175a:	469b      	mov	fp, r3
1000175c:	900b      	str	r0, [sp, #44]	; 0x2c
1000175e:	f000 fb87 	bl	10001e70 <time_us_64>
10001762:	0002      	movs	r2, r0
10001764:	000b      	movs	r3, r1
10001766:	6878      	ldr	r0, [r7, #4]
10001768:	f3ef 8910 	mrs	r9, PRIMASK
1000176c:	b672      	cpsid	i
1000176e:	464d      	mov	r5, r9
10001770:	6801      	ldr	r1, [r0, #0]
10001772:	2900      	cmp	r1, #0
10001774:	d0fc      	beq.n	10001770 <alarm_pool_alarm_callback+0x30>
10001776:	46a9      	mov	r9, r5
10001778:	f3bf 8f5f 	dmb	sy
1000177c:	6839      	ldr	r1, [r7, #0]
1000177e:	7b4e      	ldrb	r6, [r1, #13]
10001780:	468c      	mov	ip, r1
10001782:	2e00      	cmp	r6, #0
10001784:	d02e      	beq.n	100017e4 <alarm_pool_alarm_callback+0xa4>
10001786:	68bc      	ldr	r4, [r7, #8]
10001788:	495d      	ldr	r1, [pc, #372]	; (10001900 <alarm_pool_alarm_callback+0x1c0>)
1000178a:	46a2      	mov	sl, r4
1000178c:	1871      	adds	r1, r6, r1
1000178e:	0109      	lsls	r1, r1, #4
10001790:	448a      	add	sl, r1
10001792:	4651      	mov	r1, sl
10001794:	6808      	ldr	r0, [r1, #0]
10001796:	6849      	ldr	r1, [r1, #4]
10001798:	0004      	movs	r4, r0
1000179a:	000d      	movs	r5, r1
1000179c:	1aa4      	subs	r4, r4, r2
1000179e:	419d      	sbcs	r5, r3
100017a0:	2d00      	cmp	r5, #0
100017a2:	dd5e      	ble.n	10001862 <alarm_pool_alarm_callback+0x122>
100017a4:	0002      	movs	r2, r0
100017a6:	000b      	movs	r3, r1
100017a8:	980b      	ldr	r0, [sp, #44]	; 0x2c
100017aa:	f000 fbc1 	bl	10001f30 <hardware_alarm_set_target>
100017ae:	2300      	movs	r3, #0
100017b0:	2200      	movs	r2, #0
100017b2:	469a      	mov	sl, r3
100017b4:	2300      	movs	r3, #0
100017b6:	9208      	str	r2, [sp, #32]
100017b8:	9309      	str	r3, [sp, #36]	; 0x24
100017ba:	2300      	movs	r3, #0
100017bc:	4698      	mov	r8, r3
100017be:	687b      	ldr	r3, [r7, #4]
100017c0:	f3bf 8f5f 	dmb	sy
100017c4:	465a      	mov	r2, fp
100017c6:	601a      	str	r2, [r3, #0]
100017c8:	f389 8810 	msr	PRIMASK, r9
100017cc:	4643      	mov	r3, r8
100017ce:	2b00      	cmp	r3, #0
100017d0:	d112      	bne.n	100017f8 <alarm_pool_alarm_callback+0xb8>
100017d2:	2800      	cmp	r0, #0
100017d4:	d1c3      	bne.n	1000175e <alarm_pool_alarm_callback+0x1e>
100017d6:	b00d      	add	sp, #52	; 0x34
100017d8:	bcf0      	pop	{r4, r5, r6, r7}
100017da:	46bb      	mov	fp, r7
100017dc:	46b2      	mov	sl, r6
100017de:	46a9      	mov	r9, r5
100017e0:	46a0      	mov	r8, r4
100017e2:	bdf0      	pop	{r4, r5, r6, r7, pc}
100017e4:	2300      	movs	r3, #0
100017e6:	2200      	movs	r2, #0
100017e8:	469a      	mov	sl, r3
100017ea:	2300      	movs	r3, #0
100017ec:	9208      	str	r2, [sp, #32]
100017ee:	9309      	str	r3, [sp, #36]	; 0x24
100017f0:	2300      	movs	r3, #0
100017f2:	2000      	movs	r0, #0
100017f4:	4698      	mov	r8, r3
100017f6:	e7e2      	b.n	100017be <alarm_pool_alarm_callback+0x7e>
100017f8:	9b0a      	ldr	r3, [sp, #40]	; 0x28
100017fa:	4651      	mov	r1, sl
100017fc:	0218      	lsls	r0, r3, #8
100017fe:	4330      	orrs	r0, r6
10001800:	47c0      	blx	r8
10001802:	9006      	str	r0, [sp, #24]
10001804:	9107      	str	r1, [sp, #28]
10001806:	687a      	ldr	r2, [r7, #4]
10001808:	f3ef 8510 	mrs	r5, PRIMASK
1000180c:	b672      	cpsid	i
1000180e:	4654      	mov	r4, sl
10001810:	6813      	ldr	r3, [r2, #0]
10001812:	2b00      	cmp	r3, #0
10001814:	d0fc      	beq.n	10001810 <alarm_pool_alarm_callback+0xd0>
10001816:	46a2      	mov	sl, r4
10001818:	f3bf 8f5f 	dmb	sy
1000181c:	9906      	ldr	r1, [sp, #24]
1000181e:	9a07      	ldr	r2, [sp, #28]
10001820:	2a00      	cmp	r2, #0
10001822:	db3b      	blt.n	1000189c <alarm_pool_alarm_callback+0x15c>
10001824:	4311      	orrs	r1, r2
10001826:	d002      	beq.n	1000182e <alarm_pool_alarm_callback+0xee>
10001828:	693b      	ldr	r3, [r7, #16]
1000182a:	2b00      	cmp	r3, #0
1000182c:	d152      	bne.n	100018d4 <alarm_pool_alarm_callback+0x194>
1000182e:	683b      	ldr	r3, [r7, #0]
10001830:	7bd9      	ldrb	r1, [r3, #15]
10001832:	2900      	cmp	r1, #0
10001834:	d005      	beq.n	10001842 <alarm_pool_alarm_callback+0x102>
10001836:	681a      	ldr	r2, [r3, #0]
10001838:	0048      	lsls	r0, r1, #1
1000183a:	1841      	adds	r1, r0, r1
1000183c:	1852      	adds	r2, r2, r1
1000183e:	3a03      	subs	r2, #3
10001840:	7056      	strb	r6, [r2, #1]
10001842:	73de      	strb	r6, [r3, #15]
10001844:	68fa      	ldr	r2, [r7, #12]
10001846:	3e01      	subs	r6, #1
10001848:	5d93      	ldrb	r3, [r2, r6]
1000184a:	3301      	adds	r3, #1
1000184c:	5593      	strb	r3, [r2, r6]
1000184e:	465b      	mov	r3, fp
10001850:	613b      	str	r3, [r7, #16]
10001852:	687b      	ldr	r3, [r7, #4]
10001854:	f3bf 8f5f 	dmb	sy
10001858:	465a      	mov	r2, fp
1000185a:	601a      	str	r2, [r3, #0]
1000185c:	f385 8810 	msr	PRIMASK, r5
10001860:	e77d      	b.n	1000175e <alarm_pool_alarm_callback+0x1e>
10001862:	2d00      	cmp	r5, #0
10001864:	d101      	bne.n	1000186a <alarm_pool_alarm_callback+0x12a>
10001866:	2c00      	cmp	r4, #0
10001868:	d19c      	bne.n	100017a4 <alarm_pool_alarm_callback+0x64>
1000186a:	2100      	movs	r1, #0
1000186c:	4660      	mov	r0, ip
1000186e:	f000 fd11 	bl	10002294 <ph_remove_head>
10001872:	4653      	mov	r3, sl
10001874:	685c      	ldr	r4, [r3, #4]
10001876:	681b      	ldr	r3, [r3, #0]
10001878:	9308      	str	r3, [sp, #32]
1000187a:	9409      	str	r4, [sp, #36]	; 0x24
1000187c:	4653      	mov	r3, sl
1000187e:	689b      	ldr	r3, [r3, #8]
10001880:	4698      	mov	r8, r3
10001882:	4653      	mov	r3, sl
10001884:	68db      	ldr	r3, [r3, #12]
10001886:	469a      	mov	sl, r3
10001888:	68fb      	ldr	r3, [r7, #12]
1000188a:	199b      	adds	r3, r3, r6
1000188c:	3b01      	subs	r3, #1
1000188e:	781b      	ldrb	r3, [r3, #0]
10001890:	930a      	str	r3, [sp, #40]	; 0x28
10001892:	021b      	lsls	r3, r3, #8
10001894:	4303      	orrs	r3, r0
10001896:	613b      	str	r3, [r7, #16]
10001898:	2000      	movs	r0, #0
1000189a:	e790      	b.n	100017be <alarm_pool_alarm_callback+0x7e>
1000189c:	693b      	ldr	r3, [r7, #16]
1000189e:	2b00      	cmp	r3, #0
100018a0:	d0c5      	beq.n	1000182e <alarm_pool_alarm_callback+0xee>
100018a2:	9b08      	ldr	r3, [sp, #32]
100018a4:	9c09      	ldr	r4, [sp, #36]	; 0x24
100018a6:	1a5b      	subs	r3, r3, r1
100018a8:	4194      	sbcs	r4, r2
100018aa:	9808      	ldr	r0, [sp, #32]
100018ac:	9909      	ldr	r1, [sp, #36]	; 0x24
100018ae:	001a      	movs	r2, r3
100018b0:	0023      	movs	r3, r4
100018b2:	42a1      	cmp	r1, r4
100018b4:	d819      	bhi.n	100018ea <alarm_pool_alarm_callback+0x1aa>
100018b6:	4299      	cmp	r1, r3
100018b8:	d01b      	beq.n	100018f2 <alarm_pool_alarm_callback+0x1b2>
100018ba:	2100      	movs	r1, #0
100018bc:	9104      	str	r1, [sp, #16]
100018be:	3101      	adds	r1, #1
100018c0:	9103      	str	r1, [sp, #12]
100018c2:	4651      	mov	r1, sl
100018c4:	9101      	str	r1, [sp, #4]
100018c6:	4641      	mov	r1, r8
100018c8:	0038      	movs	r0, r7
100018ca:	9602      	str	r6, [sp, #8]
100018cc:	9100      	str	r1, [sp, #0]
100018ce:	f7ff febb 	bl	10001648 <add_alarm_under_lock.isra.0>
100018d2:	e7bc      	b.n	1000184e <alarm_pool_alarm_callback+0x10e>
100018d4:	f000 facc 	bl	10001e70 <time_us_64>
100018d8:	9a06      	ldr	r2, [sp, #24]
100018da:	9b07      	ldr	r3, [sp, #28]
100018dc:	1812      	adds	r2, r2, r0
100018de:	414b      	adcs	r3, r1
100018e0:	4299      	cmp	r1, r3
100018e2:	d802      	bhi.n	100018ea <alarm_pool_alarm_callback+0x1aa>
100018e4:	d1e9      	bne.n	100018ba <alarm_pool_alarm_callback+0x17a>
100018e6:	4290      	cmp	r0, r2
100018e8:	d9e7      	bls.n	100018ba <alarm_pool_alarm_callback+0x17a>
100018ea:	2201      	movs	r2, #1
100018ec:	4252      	negs	r2, r2
100018ee:	17d3      	asrs	r3, r2, #31
100018f0:	e7e3      	b.n	100018ba <alarm_pool_alarm_callback+0x17a>
100018f2:	9908      	ldr	r1, [sp, #32]
100018f4:	4291      	cmp	r1, r2
100018f6:	d9e0      	bls.n	100018ba <alarm_pool_alarm_callback+0x17a>
100018f8:	e7f7      	b.n	100018ea <alarm_pool_alarm_callback+0x1aa>
100018fa:	46c0      	nop			; (mov r8, r8)
100018fc:	200011c8 	.word	0x200011c8
10001900:	0fffffff 	.word	0x0fffffff

10001904 <alarm_pool_add_alarm_at.constprop.0>:
10001904:	b5f8      	push	{r3, r4, r5, r6, r7, lr}
10001906:	4657      	mov	r7, sl
10001908:	464e      	mov	r6, r9
1000190a:	4645      	mov	r5, r8
1000190c:	46de      	mov	lr, fp
1000190e:	b5e0      	push	{r5, r6, r7, lr}
10001910:	4d3e      	ldr	r5, [pc, #248]	; (10001a0c <alarm_pool_add_alarm_at.constprop.0+0x108>)
10001912:	4682      	mov	sl, r0
10001914:	4689      	mov	r9, r1
10001916:	686a      	ldr	r2, [r5, #4]
10001918:	f3ef 8810 	mrs	r8, PRIMASK
1000191c:	b672      	cpsid	i
1000191e:	6813      	ldr	r3, [r2, #0]
10001920:	2b00      	cmp	r3, #0
10001922:	d0fc      	beq.n	1000191e <alarm_pool_add_alarm_at.constprop.0+0x1a>
10001924:	f3bf 8f5f 	dmb	sy
10001928:	682e      	ldr	r6, [r5, #0]
1000192a:	7bb4      	ldrb	r4, [r6, #14]
1000192c:	2c00      	cmp	r4, #0
1000192e:	d048      	beq.n	100019c2 <alarm_pool_add_alarm_at.constprop.0+0xbe>
10001930:	0067      	lsls	r7, r4, #1
10001932:	6833      	ldr	r3, [r6, #0]
10001934:	193f      	adds	r7, r7, r4
10001936:	3f03      	subs	r7, #3
10001938:	19db      	adds	r3, r3, r7
1000193a:	785a      	ldrb	r2, [r3, #1]
1000193c:	73b2      	strb	r2, [r6, #14]
1000193e:	2a00      	cmp	r2, #0
10001940:	d100      	bne.n	10001944 <alarm_pool_add_alarm_at.constprop.0+0x40>
10001942:	73f2      	strb	r2, [r6, #15]
10001944:	4a32      	ldr	r2, [pc, #200]	; (10001a10 <alarm_pool_add_alarm_at.constprop.0+0x10c>)
10001946:	18a1      	adds	r1, r4, r2
10001948:	68aa      	ldr	r2, [r5, #8]
1000194a:	0109      	lsls	r1, r1, #4
1000194c:	1852      	adds	r2, r2, r1
1000194e:	4651      	mov	r1, sl
10001950:	6011      	str	r1, [r2, #0]
10001952:	4649      	mov	r1, r9
10001954:	6051      	str	r1, [r2, #4]
10001956:	492f      	ldr	r1, [pc, #188]	; (10001a14 <alarm_pool_add_alarm_at.constprop.0+0x110>)
10001958:	6091      	str	r1, [r2, #8]
1000195a:	2100      	movs	r1, #0
1000195c:	60d1      	str	r1, [r2, #12]
1000195e:	7099      	strb	r1, [r3, #2]
10001960:	7059      	strb	r1, [r3, #1]
10001962:	7019      	strb	r1, [r3, #0]
10001964:	7b73      	ldrb	r3, [r6, #13]
10001966:	469b      	mov	fp, r3
10001968:	2b00      	cmp	r3, #0
1000196a:	d041      	beq.n	100019f0 <alarm_pool_add_alarm_at.constprop.0+0xec>
1000196c:	0022      	movs	r2, r4
1000196e:	6873      	ldr	r3, [r6, #4]
10001970:	4659      	mov	r1, fp
10001972:	68b0      	ldr	r0, [r6, #8]
10001974:	4798      	blx	r3
10001976:	465b      	mov	r3, fp
10001978:	005b      	lsls	r3, r3, #1
1000197a:	445b      	add	r3, fp
1000197c:	6832      	ldr	r2, [r6, #0]
1000197e:	3b03      	subs	r3, #3
10001980:	2800      	cmp	r0, #0
10001982:	d02c      	beq.n	100019de <alarm_pool_add_alarm_at.constprop.0+0xda>
10001984:	4658      	mov	r0, fp
10001986:	19d7      	adds	r7, r2, r7
10001988:	70b8      	strb	r0, [r7, #2]
1000198a:	18d1      	adds	r1, r2, r3
1000198c:	5cd3      	ldrb	r3, [r2, r3]
1000198e:	2b00      	cmp	r3, #0
10001990:	d000      	beq.n	10001994 <alarm_pool_add_alarm_at.constprop.0+0x90>
10001992:	707b      	strb	r3, [r7, #1]
10001994:	465b      	mov	r3, fp
10001996:	700c      	strb	r4, [r1, #0]
10001998:	7373      	strb	r3, [r6, #13]
1000199a:	455c      	cmp	r4, fp
1000199c:	d029      	beq.n	100019f2 <alarm_pool_add_alarm_at.constprop.0+0xee>
1000199e:	2600      	movs	r6, #0
100019a0:	68eb      	ldr	r3, [r5, #12]
100019a2:	191b      	adds	r3, r3, r4
100019a4:	3b01      	subs	r3, #1
100019a6:	7819      	ldrb	r1, [r3, #0]
100019a8:	686b      	ldr	r3, [r5, #4]
100019aa:	f3bf 8f5f 	dmb	sy
100019ae:	2200      	movs	r2, #0
100019b0:	601a      	str	r2, [r3, #0]
100019b2:	f388 8810 	msr	PRIMASK, r8
100019b6:	2000      	movs	r0, #0
100019b8:	2e00      	cmp	r6, #0
100019ba:	d10a      	bne.n	100019d2 <alarm_pool_add_alarm_at.constprop.0+0xce>
100019bc:	0208      	lsls	r0, r1, #8
100019be:	4320      	orrs	r0, r4
100019c0:	e007      	b.n	100019d2 <alarm_pool_add_alarm_at.constprop.0+0xce>
100019c2:	686b      	ldr	r3, [r5, #4]
100019c4:	f3bf 8f5f 	dmb	sy
100019c8:	601c      	str	r4, [r3, #0]
100019ca:	f388 8810 	msr	PRIMASK, r8
100019ce:	2001      	movs	r0, #1
100019d0:	4240      	negs	r0, r0
100019d2:	bcf0      	pop	{r4, r5, r6, r7}
100019d4:	46bb      	mov	fp, r7
100019d6:	46b2      	mov	sl, r6
100019d8:	46a9      	mov	r9, r5
100019da:	46a0      	mov	r8, r4
100019dc:	bdf8      	pop	{r3, r4, r5, r6, r7, pc}
100019de:	18d3      	adds	r3, r2, r3
100019e0:	709c      	strb	r4, [r3, #2]
100019e2:	19d1      	adds	r1, r2, r7
100019e4:	5dd2      	ldrb	r2, [r2, r7]
100019e6:	2a00      	cmp	r2, #0
100019e8:	d000      	beq.n	100019ec <alarm_pool_add_alarm_at.constprop.0+0xe8>
100019ea:	705a      	strb	r2, [r3, #1]
100019ec:	465b      	mov	r3, fp
100019ee:	700b      	strb	r3, [r1, #0]
100019f0:	7374      	strb	r4, [r6, #13]
100019f2:	4652      	mov	r2, sl
100019f4:	464b      	mov	r3, r9
100019f6:	7d28      	ldrb	r0, [r5, #20]
100019f8:	f000 fa9a 	bl	10001f30 <hardware_alarm_set_target>
100019fc:	1e06      	subs	r6, r0, #0
100019fe:	d0ce      	beq.n	1000199e <alarm_pool_add_alarm_at.constprop.0+0x9a>
10001a00:	0021      	movs	r1, r4
10001a02:	6828      	ldr	r0, [r5, #0]
10001a04:	f000 fcde 	bl	100023c4 <ph_remove_and_free_node>
10001a08:	e7ca      	b.n	100019a0 <alarm_pool_add_alarm_at.constprop.0+0x9c>
10001a0a:	46c0      	nop			; (mov r8, r8)
10001a0c:	2000030c 	.word	0x2000030c
10001a10:	0fffffff 	.word	0x0fffffff
10001a14:	10001619 	.word	0x10001619

10001a18 <alarm_pool_init_default>:
10001a18:	b510      	push	{r4, lr}
10001a1a:	4c12      	ldr	r4, [pc, #72]	; (10001a64 <alarm_pool_init_default+0x4c>)
10001a1c:	6863      	ldr	r3, [r4, #4]
10001a1e:	2b00      	cmp	r3, #0
10001a20:	d004      	beq.n	10001a2c <alarm_pool_init_default+0x14>
10001a22:	210a      	movs	r1, #10
10001a24:	4810      	ldr	r0, [pc, #64]	; (10001a68 <alarm_pool_init_default+0x50>)
10001a26:	f7ff fdc7 	bl	100015b8 <lock_init>
10001a2a:	bd10      	pop	{r4, pc}
10001a2c:	0023      	movs	r3, r4
10001a2e:	4a0f      	ldr	r2, [pc, #60]	; (10001a6c <alarm_pool_init_default+0x54>)
10001a30:	2110      	movs	r1, #16
10001a32:	6820      	ldr	r0, [r4, #0]
10001a34:	f000 fb34 	bl	100020a0 <ph_post_alloc_init>
10001a38:	2003      	movs	r0, #3
10001a3a:	f000 fa0d 	bl	10001e58 <hardware_alarm_claim>
10001a3e:	2003      	movs	r0, #3
10001a40:	f000 fae4 	bl	1000200c <hardware_alarm_cancel>
10001a44:	2003      	movs	r0, #3
10001a46:	490a      	ldr	r1, [pc, #40]	; (10001a70 <alarm_pool_init_default+0x58>)
10001a48:	f000 fa2c 	bl	10001ea4 <hardware_alarm_set_callback>
10001a4c:	f7ff fb22 	bl	10001094 <next_striped_spin_lock_num>
10001a50:	4b08      	ldr	r3, [pc, #32]	; (10001a74 <alarm_pool_init_default+0x5c>)
10001a52:	469c      	mov	ip, r3
10001a54:	2303      	movs	r3, #3
10001a56:	4460      	add	r0, ip
10001a58:	7523      	strb	r3, [r4, #20]
10001a5a:	4b07      	ldr	r3, [pc, #28]	; (10001a78 <alarm_pool_init_default+0x60>)
10001a5c:	0080      	lsls	r0, r0, #2
10001a5e:	6060      	str	r0, [r4, #4]
10001a60:	60dc      	str	r4, [r3, #12]
10001a62:	e7de      	b.n	10001a22 <alarm_pool_init_default+0xa>
10001a64:	2000030c 	.word	0x2000030c
10001a68:	200012ec 	.word	0x200012ec
10001a6c:	100015c9 	.word	0x100015c9
10001a70:	10001741 	.word	0x10001741
10001a74:	34000040 	.word	0x34000040
10001a78:	200011c8 	.word	0x200011c8

10001a7c <alarm_pool_get_default>:
10001a7c:	4800      	ldr	r0, [pc, #0]	; (10001a80 <alarm_pool_get_default+0x4>)
10001a7e:	4770      	bx	lr
10001a80:	2000030c 	.word	0x2000030c

10001a84 <alarm_pool_add_repeating_timer_us>:
10001a84:	b5f0      	push	{r4, r5, r6, r7, lr}
10001a86:	4657      	mov	r7, sl
10001a88:	464e      	mov	r6, r9
10001a8a:	46de      	mov	lr, fp
10001a8c:	4645      	mov	r5, r8
10001a8e:	0011      	movs	r1, r2
10001a90:	b5e0      	push	{r5, r6, r7, lr}
10001a92:	b085      	sub	sp, #20
10001a94:	0006      	movs	r6, r0
10001a96:	469c      	mov	ip, r3
10001a98:	9f10      	ldr	r7, [sp, #64]	; 0x40
10001a9a:	4319      	orrs	r1, r3
10001a9c:	d100      	bne.n	10001aa0 <alarm_pool_add_repeating_timer_us+0x1c>
10001a9e:	e0f5      	b.n	10001c8c <alarm_pool_add_repeating_timer_us+0x208>
10001aa0:	4661      	mov	r1, ip
10001aa2:	17db      	asrs	r3, r3, #31
10001aa4:	9301      	str	r3, [sp, #4]
10001aa6:	9300      	str	r3, [sp, #0]
10001aa8:	4053      	eors	r3, r2
10001aaa:	001c      	movs	r4, r3
10001aac:	9b01      	ldr	r3, [sp, #4]
10001aae:	404b      	eors	r3, r1
10001ab0:	001d      	movs	r5, r3
10001ab2:	9800      	ldr	r0, [sp, #0]
10001ab4:	9901      	ldr	r1, [sp, #4]
10001ab6:	1a24      	subs	r4, r4, r0
10001ab8:	418d      	sbcs	r5, r1
10001aba:	4663      	mov	r3, ip
10001abc:	990e      	ldr	r1, [sp, #56]	; 0x38
10001abe:	607b      	str	r3, [r7, #4]
10001ac0:	9b0f      	ldr	r3, [sp, #60]	; 0x3c
10001ac2:	603a      	str	r2, [r7, #0]
10001ac4:	617b      	str	r3, [r7, #20]
10001ac6:	60be      	str	r6, [r7, #8]
10001ac8:	6139      	str	r1, [r7, #16]
10001aca:	f000 f9d1 	bl	10001e70 <time_us_64>
10001ace:	0002      	movs	r2, r0
10001ad0:	000b      	movs	r3, r1
10001ad2:	18a4      	adds	r4, r4, r2
10001ad4:	415d      	adcs	r5, r3
10001ad6:	9400      	str	r4, [sp, #0]
10001ad8:	9501      	str	r5, [sp, #4]
10001ada:	42a9      	cmp	r1, r5
10001adc:	d900      	bls.n	10001ae0 <alarm_pool_add_repeating_timer_us+0x5c>
10001ade:	e0df      	b.n	10001ca0 <alarm_pool_add_repeating_timer_us+0x21c>
10001ae0:	d100      	bne.n	10001ae4 <alarm_pool_add_repeating_timer_us+0x60>
10001ae2:	e0d9      	b.n	10001c98 <alarm_pool_add_repeating_timer_us+0x214>
10001ae4:	2300      	movs	r3, #0
10001ae6:	4698      	mov	r8, r3
10001ae8:	4b72      	ldr	r3, [pc, #456]	; (10001cb4 <alarm_pool_add_repeating_timer_us+0x230>)
10001aea:	9710      	str	r7, [sp, #64]	; 0x40
10001aec:	9303      	str	r3, [sp, #12]
10001aee:	2300      	movs	r3, #0
10001af0:	4699      	mov	r9, r3
10001af2:	9b10      	ldr	r3, [sp, #64]	; 0x40
10001af4:	0037      	movs	r7, r6
10001af6:	4646      	mov	r6, r8
10001af8:	4698      	mov	r8, r3
10001afa:	687a      	ldr	r2, [r7, #4]
10001afc:	f3ef 8b10 	mrs	fp, PRIMASK
10001b00:	b672      	cpsid	i
10001b02:	6813      	ldr	r3, [r2, #0]
10001b04:	2b00      	cmp	r3, #0
10001b06:	d0fc      	beq.n	10001b02 <alarm_pool_add_repeating_timer_us+0x7e>
10001b08:	f3bf 8f5f 	dmb	sy
10001b0c:	683d      	ldr	r5, [r7, #0]
10001b0e:	7bac      	ldrb	r4, [r5, #14]
10001b10:	2c00      	cmp	r4, #0
10001b12:	d100      	bne.n	10001b16 <alarm_pool_add_repeating_timer_us+0x92>
10001b14:	e074      	b.n	10001c00 <alarm_pool_add_repeating_timer_us+0x17c>
10001b16:	0063      	lsls	r3, r4, #1
10001b18:	191b      	adds	r3, r3, r4
10001b1a:	3b03      	subs	r3, #3
10001b1c:	001a      	movs	r2, r3
10001b1e:	4694      	mov	ip, r2
10001b20:	9302      	str	r3, [sp, #8]
10001b22:	682b      	ldr	r3, [r5, #0]
10001b24:	4463      	add	r3, ip
10001b26:	785a      	ldrb	r2, [r3, #1]
10001b28:	73aa      	strb	r2, [r5, #14]
10001b2a:	2a00      	cmp	r2, #0
10001b2c:	d100      	bne.n	10001b30 <alarm_pool_add_repeating_timer_us+0xac>
10001b2e:	73ea      	strb	r2, [r5, #15]
10001b30:	4a61      	ldr	r2, [pc, #388]	; (10001cb8 <alarm_pool_add_repeating_timer_us+0x234>)
10001b32:	18a1      	adds	r1, r4, r2
10001b34:	68ba      	ldr	r2, [r7, #8]
10001b36:	0109      	lsls	r1, r1, #4
10001b38:	1852      	adds	r2, r2, r1
10001b3a:	9800      	ldr	r0, [sp, #0]
10001b3c:	9901      	ldr	r1, [sp, #4]
10001b3e:	6010      	str	r0, [r2, #0]
10001b40:	6051      	str	r1, [r2, #4]
10001b42:	9903      	ldr	r1, [sp, #12]
10001b44:	6091      	str	r1, [r2, #8]
10001b46:	4641      	mov	r1, r8
10001b48:	60d1      	str	r1, [r2, #12]
10001b4a:	464a      	mov	r2, r9
10001b4c:	709a      	strb	r2, [r3, #2]
10001b4e:	705a      	strb	r2, [r3, #1]
10001b50:	701a      	strb	r2, [r3, #0]
10001b52:	7b6b      	ldrb	r3, [r5, #13]
10001b54:	469a      	mov	sl, r3
10001b56:	2b00      	cmp	r3, #0
10001b58:	d100      	bne.n	10001b5c <alarm_pool_add_repeating_timer_us+0xd8>
10001b5a:	e080      	b.n	10001c5e <alarm_pool_add_repeating_timer_us+0x1da>
10001b5c:	0022      	movs	r2, r4
10001b5e:	686b      	ldr	r3, [r5, #4]
10001b60:	4651      	mov	r1, sl
10001b62:	68a8      	ldr	r0, [r5, #8]
10001b64:	4798      	blx	r3
10001b66:	4653      	mov	r3, sl
10001b68:	005b      	lsls	r3, r3, #1
10001b6a:	4453      	add	r3, sl
10001b6c:	682a      	ldr	r2, [r5, #0]
10001b6e:	3b03      	subs	r3, #3
10001b70:	2800      	cmp	r0, #0
10001b72:	d100      	bne.n	10001b76 <alarm_pool_add_repeating_timer_us+0xf2>
10001b74:	e069      	b.n	10001c4a <alarm_pool_add_repeating_timer_us+0x1c6>
10001b76:	18d1      	adds	r1, r2, r3
10001b78:	468c      	mov	ip, r1
10001b7a:	4651      	mov	r1, sl
10001b7c:	9802      	ldr	r0, [sp, #8]
10001b7e:	1810      	adds	r0, r2, r0
10001b80:	7081      	strb	r1, [r0, #2]
10001b82:	5cd3      	ldrb	r3, [r2, r3]
10001b84:	2b00      	cmp	r3, #0
10001b86:	d000      	beq.n	10001b8a <alarm_pool_add_repeating_timer_us+0x106>
10001b88:	7043      	strb	r3, [r0, #1]
10001b8a:	4663      	mov	r3, ip
10001b8c:	701c      	strb	r4, [r3, #0]
10001b8e:	4653      	mov	r3, sl
10001b90:	736b      	strb	r3, [r5, #13]
10001b92:	0035      	movs	r5, r6
10001b94:	4554      	cmp	r4, sl
10001b96:	d063      	beq.n	10001c60 <alarm_pool_add_repeating_timer_us+0x1dc>
10001b98:	68fb      	ldr	r3, [r7, #12]
10001b9a:	687a      	ldr	r2, [r7, #4]
10001b9c:	191b      	adds	r3, r3, r4
10001b9e:	3b01      	subs	r3, #1
10001ba0:	781b      	ldrb	r3, [r3, #0]
10001ba2:	f3bf 8f5f 	dmb	sy
10001ba6:	4649      	mov	r1, r9
10001ba8:	6011      	str	r1, [r2, #0]
10001baa:	f38b 8810 	msr	PRIMASK, fp
10001bae:	2d00      	cmp	r5, #0
10001bb0:	d10c      	bne.n	10001bcc <alarm_pool_add_repeating_timer_us+0x148>
10001bb2:	4647      	mov	r7, r8
10001bb4:	021b      	lsls	r3, r3, #8
10001bb6:	4323      	orrs	r3, r4
10001bb8:	3501      	adds	r5, #1
10001bba:	0028      	movs	r0, r5
10001bbc:	60fb      	str	r3, [r7, #12]
10001bbe:	b005      	add	sp, #20
10001bc0:	bcf0      	pop	{r4, r5, r6, r7}
10001bc2:	46bb      	mov	fp, r7
10001bc4:	46b2      	mov	sl, r6
10001bc6:	46a9      	mov	r9, r5
10001bc8:	46a0      	mov	r8, r4
10001bca:	bdf0      	pop	{r4, r5, r6, r7, pc}
10001bcc:	4643      	mov	r3, r8
10001bce:	4640      	mov	r0, r8
10001bd0:	691b      	ldr	r3, [r3, #16]
10001bd2:	4798      	blx	r3
10001bd4:	1e06      	subs	r6, r0, #0
10001bd6:	d01f      	beq.n	10001c18 <alarm_pool_add_repeating_timer_us+0x194>
10001bd8:	4643      	mov	r3, r8
10001bda:	cb0c      	ldmia	r3, {r2, r3}
10001bdc:	0010      	movs	r0, r2
10001bde:	4318      	orrs	r0, r3
10001be0:	d064      	beq.n	10001cac <alarm_pool_add_repeating_timer_us+0x228>
10001be2:	0014      	movs	r4, r2
10001be4:	1e1d      	subs	r5, r3, #0
10001be6:	da1a      	bge.n	10001c1e <alarm_pool_add_repeating_timer_us+0x19a>
10001be8:	9800      	ldr	r0, [sp, #0]
10001bea:	9901      	ldr	r1, [sp, #4]
10001bec:	0002      	movs	r2, r0
10001bee:	000b      	movs	r3, r1
10001bf0:	1b12      	subs	r2, r2, r4
10001bf2:	41ab      	sbcs	r3, r5
10001bf4:	4299      	cmp	r1, r3
10001bf6:	d822      	bhi.n	10001c3e <alarm_pool_add_repeating_timer_us+0x1ba>
10001bf8:	d03f      	beq.n	10001c7a <alarm_pool_add_repeating_timer_us+0x1f6>
10001bfa:	9200      	str	r2, [sp, #0]
10001bfc:	9301      	str	r3, [sp, #4]
10001bfe:	e77c      	b.n	10001afa <alarm_pool_add_repeating_timer_us+0x76>
10001c00:	003e      	movs	r6, r7
10001c02:	4647      	mov	r7, r8
10001c04:	6873      	ldr	r3, [r6, #4]
10001c06:	f3bf 8f5f 	dmb	sy
10001c0a:	601c      	str	r4, [r3, #0]
10001c0c:	f38b 8810 	msr	PRIMASK, fp
10001c10:	2301      	movs	r3, #1
10001c12:	2500      	movs	r5, #0
10001c14:	425b      	negs	r3, r3
10001c16:	e7d0      	b.n	10001bba <alarm_pool_add_repeating_timer_us+0x136>
10001c18:	4647      	mov	r7, r8
10001c1a:	2300      	movs	r3, #0
10001c1c:	e7cd      	b.n	10001bba <alarm_pool_add_repeating_timer_us+0x136>
10001c1e:	f000 f927 	bl	10001e70 <time_us_64>
10001c22:	0002      	movs	r2, r0
10001c24:	000b      	movs	r3, r1
10001c26:	18a4      	adds	r4, r4, r2
10001c28:	415d      	adcs	r5, r3
10001c2a:	9400      	str	r4, [sp, #0]
10001c2c:	9501      	str	r5, [sp, #4]
10001c2e:	42a9      	cmp	r1, r5
10001c30:	d805      	bhi.n	10001c3e <alarm_pool_add_repeating_timer_us+0x1ba>
10001c32:	d000      	beq.n	10001c36 <alarm_pool_add_repeating_timer_us+0x1b2>
10001c34:	e761      	b.n	10001afa <alarm_pool_add_repeating_timer_us+0x76>
10001c36:	9900      	ldr	r1, [sp, #0]
10001c38:	428a      	cmp	r2, r1
10001c3a:	d800      	bhi.n	10001c3e <alarm_pool_add_repeating_timer_us+0x1ba>
10001c3c:	e75d      	b.n	10001afa <alarm_pool_add_repeating_timer_us+0x76>
10001c3e:	2301      	movs	r3, #1
10001c40:	425b      	negs	r3, r3
10001c42:	17dc      	asrs	r4, r3, #31
10001c44:	9300      	str	r3, [sp, #0]
10001c46:	9401      	str	r4, [sp, #4]
10001c48:	e757      	b.n	10001afa <alarm_pool_add_repeating_timer_us+0x76>
10001c4a:	9802      	ldr	r0, [sp, #8]
10001c4c:	18d3      	adds	r3, r2, r3
10001c4e:	709c      	strb	r4, [r3, #2]
10001c50:	1811      	adds	r1, r2, r0
10001c52:	5c12      	ldrb	r2, [r2, r0]
10001c54:	2a00      	cmp	r2, #0
10001c56:	d000      	beq.n	10001c5a <alarm_pool_add_repeating_timer_us+0x1d6>
10001c58:	705a      	strb	r2, [r3, #1]
10001c5a:	4653      	mov	r3, sl
10001c5c:	700b      	strb	r3, [r1, #0]
10001c5e:	736c      	strb	r4, [r5, #13]
10001c60:	7d38      	ldrb	r0, [r7, #20]
10001c62:	9a00      	ldr	r2, [sp, #0]
10001c64:	9b01      	ldr	r3, [sp, #4]
10001c66:	f000 f963 	bl	10001f30 <hardware_alarm_set_target>
10001c6a:	1e05      	subs	r5, r0, #0
10001c6c:	d100      	bne.n	10001c70 <alarm_pool_add_repeating_timer_us+0x1ec>
10001c6e:	e793      	b.n	10001b98 <alarm_pool_add_repeating_timer_us+0x114>
10001c70:	0021      	movs	r1, r4
10001c72:	6838      	ldr	r0, [r7, #0]
10001c74:	f000 fba6 	bl	100023c4 <ph_remove_and_free_node>
10001c78:	e78e      	b.n	10001b98 <alarm_pool_add_repeating_timer_us+0x114>
10001c7a:	9900      	ldr	r1, [sp, #0]
10001c7c:	4291      	cmp	r1, r2
10001c7e:	d9bc      	bls.n	10001bfa <alarm_pool_add_repeating_timer_us+0x176>
10001c80:	2301      	movs	r3, #1
10001c82:	425b      	negs	r3, r3
10001c84:	17dc      	asrs	r4, r3, #31
10001c86:	9300      	str	r3, [sp, #0]
10001c88:	9401      	str	r4, [sp, #4]
10001c8a:	e736      	b.n	10001afa <alarm_pool_add_repeating_timer_us+0x76>
10001c8c:	2300      	movs	r3, #0
10001c8e:	2401      	movs	r4, #1
10001c90:	2500      	movs	r5, #0
10001c92:	2201      	movs	r2, #1
10001c94:	469c      	mov	ip, r3
10001c96:	e710      	b.n	10001aba <alarm_pool_add_repeating_timer_us+0x36>
10001c98:	9900      	ldr	r1, [sp, #0]
10001c9a:	428a      	cmp	r2, r1
10001c9c:	d800      	bhi.n	10001ca0 <alarm_pool_add_repeating_timer_us+0x21c>
10001c9e:	e721      	b.n	10001ae4 <alarm_pool_add_repeating_timer_us+0x60>
10001ca0:	2301      	movs	r3, #1
10001ca2:	425b      	negs	r3, r3
10001ca4:	17dc      	asrs	r4, r3, #31
10001ca6:	9300      	str	r3, [sp, #0]
10001ca8:	9401      	str	r4, [sp, #4]
10001caa:	e71b      	b.n	10001ae4 <alarm_pool_add_repeating_timer_us+0x60>
10001cac:	4647      	mov	r7, r8
10001cae:	0035      	movs	r5, r6
10001cb0:	2300      	movs	r3, #0
10001cb2:	e782      	b.n	10001bba <alarm_pool_add_repeating_timer_us+0x136>
10001cb4:	100015fd 	.word	0x100015fd
10001cb8:	0fffffff 	.word	0x0fffffff

10001cbc <sleep_until>:
10001cbc:	b5f0      	push	{r4, r5, r6, r7, lr}
10001cbe:	0004      	movs	r4, r0
10001cc0:	000d      	movs	r5, r1
10001cc2:	2606      	movs	r6, #6
10001cc4:	4276      	negs	r6, r6
10001cc6:	17f7      	asrs	r7, r6, #31
10001cc8:	46c6      	mov	lr, r8
10001cca:	1936      	adds	r6, r6, r4
10001ccc:	416f      	adcs	r7, r5
10001cce:	b500      	push	{lr}
10001cd0:	428f      	cmp	r7, r1
10001cd2:	d813      	bhi.n	10001cfc <sleep_until+0x40>
10001cd4:	d010      	beq.n	10001cf8 <sleep_until+0x3c>
10001cd6:	f000 f8cb 	bl	10001e70 <time_us_64>
10001cda:	0032      	movs	r2, r6
10001cdc:	003b      	movs	r3, r7
10001cde:	1a12      	subs	r2, r2, r0
10001ce0:	418b      	sbcs	r3, r1
10001ce2:	2b00      	cmp	r3, #0
10001ce4:	dc14      	bgt.n	10001d10 <sleep_until+0x54>
10001ce6:	2b00      	cmp	r3, #0
10001ce8:	d037      	beq.n	10001d5a <sleep_until+0x9e>
10001cea:	0029      	movs	r1, r5
10001cec:	0020      	movs	r0, r4
10001cee:	f000 f8c9 	bl	10001e84 <busy_wait_until>
10001cf2:	bc80      	pop	{r7}
10001cf4:	46b8      	mov	r8, r7
10001cf6:	bdf0      	pop	{r4, r5, r6, r7, pc}
10001cf8:	4286      	cmp	r6, r0
10001cfa:	d9ec      	bls.n	10001cd6 <sleep_until+0x1a>
10001cfc:	2600      	movs	r6, #0
10001cfe:	2700      	movs	r7, #0
10001d00:	f000 f8b6 	bl	10001e70 <time_us_64>
10001d04:	0032      	movs	r2, r6
10001d06:	003b      	movs	r3, r7
10001d08:	1a12      	subs	r2, r2, r0
10001d0a:	418b      	sbcs	r3, r1
10001d0c:	2b00      	cmp	r3, #0
10001d0e:	ddea      	ble.n	10001ce6 <sleep_until+0x2a>
10001d10:	0030      	movs	r0, r6
10001d12:	0039      	movs	r1, r7
10001d14:	f7ff fdf6 	bl	10001904 <alarm_pool_add_alarm_at.constprop.0>
10001d18:	2800      	cmp	r0, #0
10001d1a:	dbe6      	blt.n	10001cea <sleep_until+0x2e>
10001d1c:	2300      	movs	r3, #0
10001d1e:	4698      	mov	r8, r3
10001d20:	46bc      	mov	ip, r7
10001d22:	4a0f      	ldr	r2, [pc, #60]	; (10001d60 <sleep_until+0xa4>)
10001d24:	4f0f      	ldr	r7, [pc, #60]	; (10001d64 <sleep_until+0xa8>)
10001d26:	6a7b      	ldr	r3, [r7, #36]	; 0x24
10001d28:	459c      	cmp	ip, r3
10001d2a:	d804      	bhi.n	10001d36 <sleep_until+0x7a>
10001d2c:	6ab9      	ldr	r1, [r7, #40]	; 0x28
10001d2e:	42b1      	cmp	r1, r6
10001d30:	d2db      	bcs.n	10001cea <sleep_until+0x2e>
10001d32:	459c      	cmp	ip, r3
10001d34:	d1d9      	bne.n	10001cea <sleep_until+0x2e>
10001d36:	6811      	ldr	r1, [r2, #0]
10001d38:	f3ef 8010 	mrs	r0, PRIMASK
10001d3c:	b672      	cpsid	i
10001d3e:	680b      	ldr	r3, [r1, #0]
10001d40:	2b00      	cmp	r3, #0
10001d42:	d0fc      	beq.n	10001d3e <sleep_until+0x82>
10001d44:	f3bf 8f5f 	dmb	sy
10001d48:	6813      	ldr	r3, [r2, #0]
10001d4a:	f3bf 8f5f 	dmb	sy
10001d4e:	4641      	mov	r1, r8
10001d50:	6019      	str	r1, [r3, #0]
10001d52:	f380 8810 	msr	PRIMASK, r0
10001d56:	bf20      	wfe
10001d58:	e7e5      	b.n	10001d26 <sleep_until+0x6a>
10001d5a:	2a00      	cmp	r2, #0
10001d5c:	d0c5      	beq.n	10001cea <sleep_until+0x2e>
10001d5e:	e7d7      	b.n	10001d10 <sleep_until+0x54>
10001d60:	200012ec 	.word	0x200012ec
10001d64:	40054000 	.word	0x40054000

10001d68 <sleep_ms>:
10001d68:	b570      	push	{r4, r5, r6, lr}
10001d6a:	0006      	movs	r6, r0
10001d6c:	f000 f880 	bl	10001e70 <time_us_64>
10001d70:	22fa      	movs	r2, #250	; 0xfa
10001d72:	0004      	movs	r4, r0
10001d74:	000d      	movs	r5, r1
10001d76:	2300      	movs	r3, #0
10001d78:	0030      	movs	r0, r6
10001d7a:	2100      	movs	r1, #0
10001d7c:	0092      	lsls	r2, r2, #2
10001d7e:	f000 fed5 	bl	10002b2c <__wrap___aeabi_lmul>
10001d82:	1900      	adds	r0, r0, r4
10001d84:	4169      	adcs	r1, r5
10001d86:	428d      	cmp	r5, r1
10001d88:	d805      	bhi.n	10001d96 <sleep_ms+0x2e>
10001d8a:	d002      	beq.n	10001d92 <sleep_ms+0x2a>
10001d8c:	f7ff ff96 	bl	10001cbc <sleep_until>
10001d90:	bd70      	pop	{r4, r5, r6, pc}
10001d92:	4284      	cmp	r4, r0
10001d94:	d9fa      	bls.n	10001d8c <sleep_ms+0x24>
10001d96:	2001      	movs	r0, #1
10001d98:	4240      	negs	r0, r0
10001d9a:	17c1      	asrs	r1, r0, #31
10001d9c:	e7f6      	b.n	10001d8c <sleep_ms+0x24>
10001d9e:	46c0      	nop			; (mov r8, r8)

10001da0 <hardware_alarm_irq_handler>:
10001da0:	b5f0      	push	{r4, r5, r6, r7, lr}
10001da2:	46d6      	mov	lr, sl
10001da4:	464f      	mov	r7, r9
10001da6:	4646      	mov	r6, r8
10001da8:	b5c0      	push	{r6, r7, lr}
10001daa:	f3ef 8205 	mrs	r2, IPSR
10001dae:	233f      	movs	r3, #63	; 0x3f
10001db0:	4013      	ands	r3, r2
10001db2:	0018      	movs	r0, r3
10001db4:	3810      	subs	r0, #16
10001db6:	f3ef 8c10 	mrs	ip, PRIMASK
10001dba:	b672      	cpsid	i
10001dbc:	4920      	ldr	r1, [pc, #128]	; (10001e40 <hardware_alarm_irq_handler+0xa0>)
10001dbe:	680a      	ldr	r2, [r1, #0]
10001dc0:	2a00      	cmp	r2, #0
10001dc2:	d0fc      	beq.n	10001dbe <hardware_alarm_irq_handler+0x1e>
10001dc4:	f3bf 8f5f 	dmb	sy
10001dc8:	2201      	movs	r2, #1
10001dca:	0017      	movs	r7, r2
10001dcc:	4087      	lsls	r7, r0
10001dce:	4c1d      	ldr	r4, [pc, #116]	; (10001e44 <hardware_alarm_irq_handler+0xa4>)
10001dd0:	0016      	movs	r6, r2
10001dd2:	46a2      	mov	sl, r4
10001dd4:	6367      	str	r7, [r4, #52]	; 0x34
10001dd6:	4c1c      	ldr	r4, [pc, #112]	; (10001e48 <hardware_alarm_irq_handler+0xa8>)
10001dd8:	7825      	ldrb	r5, [r4, #0]
10001dda:	46a0      	mov	r8, r4
10001ddc:	002c      	movs	r4, r5
10001dde:	40c4      	lsrs	r4, r0
10001de0:	4026      	ands	r6, r4
10001de2:	4222      	tst	r2, r4
10001de4:	d015      	beq.n	10001e12 <hardware_alarm_irq_handler+0x72>
10001de6:	4652      	mov	r2, sl
10001de8:	6a56      	ldr	r6, [r2, #36]	; 0x24
10001dea:	4a18      	ldr	r2, [pc, #96]	; (10001e4c <hardware_alarm_irq_handler+0xac>)
10001dec:	0084      	lsls	r4, r0, #2
10001dee:	58a2      	ldr	r2, [r4, r2]
10001df0:	4296      	cmp	r6, r2
10001df2:	d318      	bcc.n	10001e26 <hardware_alarm_irq_handler+0x86>
10001df4:	4642      	mov	r2, r8
10001df6:	4b16      	ldr	r3, [pc, #88]	; (10001e50 <hardware_alarm_irq_handler+0xb0>)
10001df8:	43bd      	bics	r5, r7
10001dfa:	58e3      	ldr	r3, [r4, r3]
10001dfc:	7015      	strb	r5, [r2, #0]
10001dfe:	f3bf 8f5f 	dmb	sy
10001e02:	2200      	movs	r2, #0
10001e04:	600a      	str	r2, [r1, #0]
10001e06:	f38c 8810 	msr	PRIMASK, ip
10001e0a:	2b00      	cmp	r3, #0
10001e0c:	d006      	beq.n	10001e1c <hardware_alarm_irq_handler+0x7c>
10001e0e:	4798      	blx	r3
10001e10:	e004      	b.n	10001e1c <hardware_alarm_irq_handler+0x7c>
10001e12:	f3bf 8f5f 	dmb	sy
10001e16:	600e      	str	r6, [r1, #0]
10001e18:	f38c 8810 	msr	PRIMASK, ip
10001e1c:	bce0      	pop	{r5, r6, r7}
10001e1e:	46ba      	mov	sl, r7
10001e20:	46b1      	mov	r9, r6
10001e22:	46a8      	mov	r8, r5
10001e24:	bdf0      	pop	{r4, r5, r6, r7, pc}
10001e26:	4a0b      	ldr	r2, [pc, #44]	; (10001e54 <hardware_alarm_irq_handler+0xb4>)
10001e28:	009b      	lsls	r3, r3, #2
10001e2a:	4690      	mov	r8, r2
10001e2c:	4443      	add	r3, r8
10001e2e:	681a      	ldr	r2, [r3, #0]
10001e30:	601a      	str	r2, [r3, #0]
10001e32:	f3bf 8f5f 	dmb	sy
10001e36:	2300      	movs	r3, #0
10001e38:	600b      	str	r3, [r1, #0]
10001e3a:	f38c 8810 	msr	PRIMASK, ip
10001e3e:	e7ed      	b.n	10001e1c <hardware_alarm_irq_handler+0x7c>
10001e40:	d0000128 	.word	0xd0000128
10001e44:	40054000 	.word	0x40054000
10001e48:	20001308 	.word	0x20001308
10001e4c:	200012f0 	.word	0x200012f0
10001e50:	20000f2c 	.word	0x20000f2c
10001e54:	40053fd0 	.word	0x40053fd0

10001e58 <hardware_alarm_claim>:
10001e58:	b510      	push	{r4, lr}
10001e5a:	4b03      	ldr	r3, [pc, #12]	; (10001e68 <hardware_alarm_claim+0x10>)
10001e5c:	0001      	movs	r1, r0
10001e5e:	0018      	movs	r0, r3
10001e60:	4a02      	ldr	r2, [pc, #8]	; (10001e6c <hardware_alarm_claim+0x14>)
10001e62:	f7ff f8df 	bl	10001024 <hw_claim_or_assert>
10001e66:	bd10      	pop	{r4, pc}
10001e68:	20001301 	.word	0x20001301
10001e6c:	100038c0 	.word	0x100038c0

10001e70 <time_us_64>:
10001e70:	4b03      	ldr	r3, [pc, #12]	; (10001e80 <time_us_64+0x10>)
10001e72:	6a59      	ldr	r1, [r3, #36]	; 0x24
10001e74:	000a      	movs	r2, r1
10001e76:	6a98      	ldr	r0, [r3, #40]	; 0x28
10001e78:	6a59      	ldr	r1, [r3, #36]	; 0x24
10001e7a:	428a      	cmp	r2, r1
10001e7c:	d1fa      	bne.n	10001e74 <time_us_64+0x4>
10001e7e:	4770      	bx	lr
10001e80:	40054000 	.word	0x40054000

10001e84 <busy_wait_until>:
10001e84:	4a06      	ldr	r2, [pc, #24]	; (10001ea0 <busy_wait_until+0x1c>)
10001e86:	6a53      	ldr	r3, [r2, #36]	; 0x24
10001e88:	4299      	cmp	r1, r3
10001e8a:	d8fc      	bhi.n	10001e86 <busy_wait_until+0x2>
10001e8c:	d107      	bne.n	10001e9e <busy_wait_until+0x1a>
10001e8e:	4b04      	ldr	r3, [pc, #16]	; (10001ea0 <busy_wait_until+0x1c>)
10001e90:	e002      	b.n	10001e98 <busy_wait_until+0x14>
10001e92:	6a5a      	ldr	r2, [r3, #36]	; 0x24
10001e94:	4291      	cmp	r1, r2
10001e96:	d102      	bne.n	10001e9e <busy_wait_until+0x1a>
10001e98:	6a9a      	ldr	r2, [r3, #40]	; 0x28
10001e9a:	4282      	cmp	r2, r0
10001e9c:	d3f9      	bcc.n	10001e92 <busy_wait_until+0xe>
10001e9e:	4770      	bx	lr
10001ea0:	40054000 	.word	0x40054000

10001ea4 <hardware_alarm_set_callback>:
10001ea4:	b570      	push	{r4, r5, r6, lr}
10001ea6:	0004      	movs	r4, r0
10001ea8:	000d      	movs	r5, r1
10001eaa:	f3ef 8610 	mrs	r6, PRIMASK
10001eae:	b672      	cpsid	i
10001eb0:	4a1a      	ldr	r2, [pc, #104]	; (10001f1c <hardware_alarm_set_callback+0x78>)
10001eb2:	6813      	ldr	r3, [r2, #0]
10001eb4:	2b00      	cmp	r3, #0
10001eb6:	d0fc      	beq.n	10001eb2 <hardware_alarm_set_callback+0xe>
10001eb8:	f3bf 8f5f 	dmb	sy
10001ebc:	2d00      	cmp	r5, #0
10001ebe:	d01b      	beq.n	10001ef8 <hardware_alarm_set_callback+0x54>
10001ec0:	0020      	movs	r0, r4
10001ec2:	f7ff f905 	bl	100010d0 <irq_get_vtable_handler>
10001ec6:	4916      	ldr	r1, [pc, #88]	; (10001f20 <hardware_alarm_set_callback+0x7c>)
10001ec8:	4281      	cmp	r1, r0
10001eca:	d00a      	beq.n	10001ee2 <hardware_alarm_set_callback+0x3e>
10001ecc:	0020      	movs	r0, r4
10001ece:	f7ff f907 	bl	100010e0 <irq_set_exclusive_handler>
10001ed2:	2101      	movs	r1, #1
10001ed4:	0020      	movs	r0, r4
10001ed6:	f7ff f8e9 	bl	100010ac <irq_set_enabled>
10001eda:	2301      	movs	r3, #1
10001edc:	40a3      	lsls	r3, r4
10001ede:	4a11      	ldr	r2, [pc, #68]	; (10001f24 <hardware_alarm_set_callback+0x80>)
10001ee0:	6013      	str	r3, [r2, #0]
10001ee2:	4b11      	ldr	r3, [pc, #68]	; (10001f28 <hardware_alarm_set_callback+0x84>)
10001ee4:	00a4      	lsls	r4, r4, #2
10001ee6:	50e5      	str	r5, [r4, r3]
10001ee8:	f3bf 8f5f 	dmb	sy
10001eec:	2200      	movs	r2, #0
10001eee:	4b0b      	ldr	r3, [pc, #44]	; (10001f1c <hardware_alarm_set_callback+0x78>)
10001ef0:	601a      	str	r2, [r3, #0]
10001ef2:	f386 8810 	msr	PRIMASK, r6
10001ef6:	bd70      	pop	{r4, r5, r6, pc}
10001ef8:	2101      	movs	r1, #1
10001efa:	40a1      	lsls	r1, r4
10001efc:	4b0a      	ldr	r3, [pc, #40]	; (10001f28 <hardware_alarm_set_callback+0x84>)
10001efe:	00a2      	lsls	r2, r4, #2
10001f00:	50d5      	str	r5, [r2, r3]
10001f02:	4b0a      	ldr	r3, [pc, #40]	; (10001f2c <hardware_alarm_set_callback+0x88>)
10001f04:	0020      	movs	r0, r4
10001f06:	781a      	ldrb	r2, [r3, #0]
10001f08:	438a      	bics	r2, r1
10001f0a:	4905      	ldr	r1, [pc, #20]	; (10001f20 <hardware_alarm_set_callback+0x7c>)
10001f0c:	701a      	strb	r2, [r3, #0]
10001f0e:	f7ff fa01 	bl	10001314 <irq_remove_handler>
10001f12:	2100      	movs	r1, #0
10001f14:	0020      	movs	r0, r4
10001f16:	f7ff f8c9 	bl	100010ac <irq_set_enabled>
10001f1a:	e7e5      	b.n	10001ee8 <hardware_alarm_set_callback+0x44>
10001f1c:	d0000128 	.word	0xd0000128
10001f20:	10001da1 	.word	0x10001da1
10001f24:	40056038 	.word	0x40056038
10001f28:	20000f2c 	.word	0x20000f2c
10001f2c:	20001308 	.word	0x20001308

10001f30 <hardware_alarm_set_target>:
10001f30:	b5f0      	push	{r4, r5, r6, r7, lr}
10001f32:	464f      	mov	r7, r9
10001f34:	46d6      	mov	lr, sl
10001f36:	4646      	mov	r6, r8
10001f38:	b5c0      	push	{r6, r7, lr}
10001f3a:	0007      	movs	r7, r0
10001f3c:	4c2e      	ldr	r4, [pc, #184]	; (10001ff8 <hardware_alarm_set_target+0xc8>)
10001f3e:	6a61      	ldr	r1, [r4, #36]	; 0x24
10001f40:	000d      	movs	r5, r1
10001f42:	6aa6      	ldr	r6, [r4, #40]	; 0x28
10001f44:	6a61      	ldr	r1, [r4, #36]	; 0x24
10001f46:	42a9      	cmp	r1, r5
10001f48:	d1fa      	bne.n	10001f40 <hardware_alarm_set_target+0x10>
10001f4a:	428b      	cmp	r3, r1
10001f4c:	d808      	bhi.n	10001f60 <hardware_alarm_set_target+0x30>
10001f4e:	d005      	beq.n	10001f5c <hardware_alarm_set_target+0x2c>
10001f50:	2001      	movs	r0, #1
10001f52:	bce0      	pop	{r5, r6, r7}
10001f54:	46ba      	mov	sl, r7
10001f56:	46b1      	mov	r9, r6
10001f58:	46a8      	mov	r8, r5
10001f5a:	bdf0      	pop	{r4, r5, r6, r7, pc}
10001f5c:	42b2      	cmp	r2, r6
10001f5e:	d9f7      	bls.n	10001f50 <hardware_alarm_set_target+0x20>
10001f60:	f3ef 8a10 	mrs	sl, PRIMASK
10001f64:	b672      	cpsid	i
10001f66:	4825      	ldr	r0, [pc, #148]	; (10001ffc <hardware_alarm_set_target+0xcc>)
10001f68:	6801      	ldr	r1, [r0, #0]
10001f6a:	2900      	cmp	r1, #0
10001f6c:	d0fc      	beq.n	10001f68 <hardware_alarm_set_target+0x38>
10001f6e:	f3bf 8f5f 	dmb	sy
10001f72:	2501      	movs	r5, #1
10001f74:	40bd      	lsls	r5, r7
10001f76:	4922      	ldr	r1, [pc, #136]	; (10002000 <hardware_alarm_set_target+0xd0>)
10001f78:	4c1f      	ldr	r4, [pc, #124]	; (10001ff8 <hardware_alarm_set_target+0xc8>)
10001f7a:	4688      	mov	r8, r1
10001f7c:	7809      	ldrb	r1, [r1, #0]
10001f7e:	4689      	mov	r9, r1
10001f80:	4329      	orrs	r1, r5
10001f82:	b2c9      	uxtb	r1, r1
10001f84:	468c      	mov	ip, r1
10001f86:	4641      	mov	r1, r8
10001f88:	4660      	mov	r0, ip
10001f8a:	7008      	strb	r0, [r1, #0]
10001f8c:	1d39      	adds	r1, r7, #4
10001f8e:	0089      	lsls	r1, r1, #2
10001f90:	6365      	str	r5, [r4, #52]	; 0x34
10001f92:	510a      	str	r2, [r1, r4]
10001f94:	491b      	ldr	r1, [pc, #108]	; (10002004 <hardware_alarm_set_target+0xd4>)
10001f96:	00b8      	lsls	r0, r7, #2
10001f98:	5043      	str	r3, [r0, r1]
10001f9a:	6a21      	ldr	r1, [r4, #32]
10001f9c:	2000      	movs	r0, #0
10001f9e:	4229      	tst	r1, r5
10001fa0:	d019      	beq.n	10001fd6 <hardware_alarm_set_target+0xa6>
10001fa2:	6a61      	ldr	r1, [r4, #36]	; 0x24
10001fa4:	0008      	movs	r0, r1
10001fa6:	6aa6      	ldr	r6, [r4, #40]	; 0x28
10001fa8:	6a61      	ldr	r1, [r4, #36]	; 0x24
10001faa:	4281      	cmp	r1, r0
10001fac:	d1fa      	bne.n	10001fa4 <hardware_alarm_set_target+0x74>
10001fae:	428b      	cmp	r3, r1
10001fb0:	d819      	bhi.n	10001fe6 <hardware_alarm_set_target+0xb6>
10001fb2:	d101      	bne.n	10001fb8 <hardware_alarm_set_target+0x88>
10001fb4:	42b2      	cmp	r2, r6
10001fb6:	d816      	bhi.n	10001fe6 <hardware_alarm_set_target+0xb6>
10001fb8:	45cc      	cmp	ip, r9
10001fba:	d00b      	beq.n	10001fd4 <hardware_alarm_set_target+0xa4>
10001fbc:	4b0e      	ldr	r3, [pc, #56]	; (10001ff8 <hardware_alarm_set_target+0xc8>)
10001fbe:	221f      	movs	r2, #31
10001fc0:	621d      	str	r5, [r3, #32]
10001fc2:	635d      	str	r5, [r3, #52]	; 0x34
10001fc4:	2301      	movs	r3, #1
10001fc6:	403a      	ands	r2, r7
10001fc8:	4093      	lsls	r3, r2
10001fca:	4a0f      	ldr	r2, [pc, #60]	; (10002008 <hardware_alarm_set_target+0xd8>)
10001fcc:	6013      	str	r3, [r2, #0]
10001fce:	4643      	mov	r3, r8
10001fd0:	464a      	mov	r2, r9
10001fd2:	701a      	strb	r2, [r3, #0]
10001fd4:	2001      	movs	r0, #1
10001fd6:	f3bf 8f5f 	dmb	sy
10001fda:	2200      	movs	r2, #0
10001fdc:	4b07      	ldr	r3, [pc, #28]	; (10001ffc <hardware_alarm_set_target+0xcc>)
10001fde:	601a      	str	r2, [r3, #0]
10001fe0:	f38a 8810 	msr	PRIMASK, sl
10001fe4:	e7b5      	b.n	10001f52 <hardware_alarm_set_target+0x22>
10001fe6:	2000      	movs	r0, #0
10001fe8:	f3bf 8f5f 	dmb	sy
10001fec:	2200      	movs	r2, #0
10001fee:	4b03      	ldr	r3, [pc, #12]	; (10001ffc <hardware_alarm_set_target+0xcc>)
10001ff0:	601a      	str	r2, [r3, #0]
10001ff2:	f38a 8810 	msr	PRIMASK, sl
10001ff6:	e7ac      	b.n	10001f52 <hardware_alarm_set_target+0x22>
10001ff8:	40054000 	.word	0x40054000
10001ffc:	d0000128 	.word	0xd0000128
10002000:	20001308 	.word	0x20001308
10002004:	200012f0 	.word	0x200012f0
10002008:	e000e280 	.word	0xe000e280

1000200c <hardware_alarm_cancel>:
1000200c:	f3ef 8c10 	mrs	ip, PRIMASK
10002010:	b672      	cpsid	i
10002012:	490a      	ldr	r1, [pc, #40]	; (1000203c <hardware_alarm_cancel+0x30>)
10002014:	680b      	ldr	r3, [r1, #0]
10002016:	2b00      	cmp	r3, #0
10002018:	d0fc      	beq.n	10002014 <hardware_alarm_cancel+0x8>
1000201a:	f3bf 8f5f 	dmb	sy
1000201e:	2301      	movs	r3, #1
10002020:	4083      	lsls	r3, r0
10002022:	4a07      	ldr	r2, [pc, #28]	; (10002040 <hardware_alarm_cancel+0x34>)
10002024:	4807      	ldr	r0, [pc, #28]	; (10002044 <hardware_alarm_cancel+0x38>)
10002026:	6213      	str	r3, [r2, #32]
10002028:	7802      	ldrb	r2, [r0, #0]
1000202a:	439a      	bics	r2, r3
1000202c:	7002      	strb	r2, [r0, #0]
1000202e:	f3bf 8f5f 	dmb	sy
10002032:	2300      	movs	r3, #0
10002034:	600b      	str	r3, [r1, #0]
10002036:	f38c 8810 	msr	PRIMASK, ip
1000203a:	4770      	bx	lr
1000203c:	d0000128 	.word	0xd0000128
10002040:	40054000 	.word	0x40054000
10002044:	20001308 	.word	0x20001308

10002048 <ph_merge_nodes>:
10002048:	b570      	push	{r4, r5, r6, lr}
1000204a:	0006      	movs	r6, r0
1000204c:	000d      	movs	r5, r1
1000204e:	0014      	movs	r4, r2
10002050:	2900      	cmp	r1, #0
10002052:	d01d      	beq.n	10002090 <ph_merge_nodes+0x48>
10002054:	2a00      	cmp	r2, #0
10002056:	d012      	beq.n	1000207e <ph_merge_nodes+0x36>
10002058:	6873      	ldr	r3, [r6, #4]
1000205a:	6880      	ldr	r0, [r0, #8]
1000205c:	4798      	blx	r3
1000205e:	0062      	lsls	r2, r4, #1
10002060:	006b      	lsls	r3, r5, #1
10002062:	1912      	adds	r2, r2, r4
10002064:	195b      	adds	r3, r3, r5
10002066:	6831      	ldr	r1, [r6, #0]
10002068:	3a03      	subs	r2, #3
1000206a:	3b03      	subs	r3, #3
1000206c:	2800      	cmp	r0, #0
1000206e:	d008      	beq.n	10002082 <ph_merge_nodes+0x3a>
10002070:	188a      	adds	r2, r1, r2
10002072:	7095      	strb	r5, [r2, #2]
10002074:	18c8      	adds	r0, r1, r3
10002076:	5ccb      	ldrb	r3, [r1, r3]
10002078:	2b00      	cmp	r3, #0
1000207a:	d10b      	bne.n	10002094 <ph_merge_nodes+0x4c>
1000207c:	7004      	strb	r4, [r0, #0]
1000207e:	0028      	movs	r0, r5
10002080:	bd70      	pop	{r4, r5, r6, pc}
10002082:	18cb      	adds	r3, r1, r3
10002084:	709c      	strb	r4, [r3, #2]
10002086:	1888      	adds	r0, r1, r2
10002088:	5c8a      	ldrb	r2, [r1, r2]
1000208a:	2a00      	cmp	r2, #0
1000208c:	d105      	bne.n	1000209a <ph_merge_nodes+0x52>
1000208e:	7005      	strb	r5, [r0, #0]
10002090:	0020      	movs	r0, r4
10002092:	e7f5      	b.n	10002080 <ph_merge_nodes+0x38>
10002094:	7053      	strb	r3, [r2, #1]
10002096:	7004      	strb	r4, [r0, #0]
10002098:	e7f1      	b.n	1000207e <ph_merge_nodes+0x36>
1000209a:	705a      	strb	r2, [r3, #1]
1000209c:	7005      	strb	r5, [r0, #0]
1000209e:	e7f7      	b.n	10002090 <ph_merge_nodes+0x48>

100020a0 <ph_post_alloc_init>:
100020a0:	b510      	push	{r4, lr}
100020a2:	6083      	str	r3, [r0, #8]
100020a4:	2300      	movs	r3, #0
100020a6:	b2cc      	uxtb	r4, r1
100020a8:	7343      	strb	r3, [r0, #13]
100020aa:	3301      	adds	r3, #1
100020ac:	6042      	str	r2, [r0, #4]
100020ae:	7304      	strb	r4, [r0, #12]
100020b0:	7383      	strb	r3, [r0, #14]
100020b2:	73c4      	strb	r4, [r0, #15]
100020b4:	6800      	ldr	r0, [r0, #0]
100020b6:	1c42      	adds	r2, r0, #1
100020b8:	2c01      	cmp	r4, #1
100020ba:	d905      	bls.n	100020c8 <ph_post_alloc_init+0x28>
100020bc:	3301      	adds	r3, #1
100020be:	b2db      	uxtb	r3, r3
100020c0:	7013      	strb	r3, [r2, #0]
100020c2:	3203      	adds	r2, #3
100020c4:	429c      	cmp	r4, r3
100020c6:	d1f9      	bne.n	100020bc <ph_post_alloc_init+0x1c>
100020c8:	23ff      	movs	r3, #255	; 0xff
100020ca:	400b      	ands	r3, r1
100020cc:	005a      	lsls	r2, r3, #1
100020ce:	18d3      	adds	r3, r2, r3
100020d0:	18c0      	adds	r0, r0, r3
100020d2:	2300      	movs	r3, #0
100020d4:	3803      	subs	r0, #3
100020d6:	7043      	strb	r3, [r0, #1]
100020d8:	bd10      	pop	{r4, pc}
100020da:	46c0      	nop			; (mov r8, r8)

100020dc <ph_merge_two_pass>:
100020dc:	b570      	push	{r4, r5, r6, lr}
100020de:	0005      	movs	r5, r0
100020e0:	1e0c      	subs	r4, r1, #0
100020e2:	d007      	beq.n	100020f4 <ph_merge_two_pass+0x18>
100020e4:	0063      	lsls	r3, r4, #1
100020e6:	6801      	ldr	r1, [r0, #0]
100020e8:	191b      	adds	r3, r3, r4
100020ea:	3b03      	subs	r3, #3
100020ec:	18cb      	adds	r3, r1, r3
100020ee:	785a      	ldrb	r2, [r3, #1]
100020f0:	2a00      	cmp	r2, #0
100020f2:	d101      	bne.n	100020f8 <ph_merge_two_pass+0x1c>
100020f4:	0020      	movs	r0, r4
100020f6:	bd70      	pop	{r4, r5, r6, pc}
100020f8:	0050      	lsls	r0, r2, #1
100020fa:	1880      	adds	r0, r0, r2
100020fc:	3803      	subs	r0, #3
100020fe:	1809      	adds	r1, r1, r0
10002100:	2000      	movs	r0, #0
10002102:	784e      	ldrb	r6, [r1, #1]
10002104:	7048      	strb	r0, [r1, #1]
10002106:	0021      	movs	r1, r4
10002108:	7058      	strb	r0, [r3, #1]
1000210a:	0028      	movs	r0, r5
1000210c:	f7ff ff9c 	bl	10002048 <ph_merge_nodes>
10002110:	0031      	movs	r1, r6
10002112:	0004      	movs	r4, r0
10002114:	0028      	movs	r0, r5
10002116:	f7ff ffe1 	bl	100020dc <ph_merge_two_pass>
1000211a:	0006      	movs	r6, r0
1000211c:	2c00      	cmp	r4, #0
1000211e:	d020      	beq.n	10002162 <ph_merge_two_pass+0x86>
10002120:	2800      	cmp	r0, #0
10002122:	d0e7      	beq.n	100020f4 <ph_merge_two_pass+0x18>
10002124:	0032      	movs	r2, r6
10002126:	0021      	movs	r1, r4
10002128:	686b      	ldr	r3, [r5, #4]
1000212a:	68a8      	ldr	r0, [r5, #8]
1000212c:	4798      	blx	r3
1000212e:	0072      	lsls	r2, r6, #1
10002130:	0063      	lsls	r3, r4, #1
10002132:	1992      	adds	r2, r2, r6
10002134:	191b      	adds	r3, r3, r4
10002136:	6829      	ldr	r1, [r5, #0]
10002138:	3a03      	subs	r2, #3
1000213a:	3b03      	subs	r3, #3
1000213c:	2800      	cmp	r0, #0
1000213e:	d008      	beq.n	10002152 <ph_merge_two_pass+0x76>
10002140:	188a      	adds	r2, r1, r2
10002142:	7094      	strb	r4, [r2, #2]
10002144:	18c8      	adds	r0, r1, r3
10002146:	5ccb      	ldrb	r3, [r1, r3]
10002148:	2b00      	cmp	r3, #0
1000214a:	d000      	beq.n	1000214e <ph_merge_two_pass+0x72>
1000214c:	7053      	strb	r3, [r2, #1]
1000214e:	7006      	strb	r6, [r0, #0]
10002150:	e7d0      	b.n	100020f4 <ph_merge_two_pass+0x18>
10002152:	18cb      	adds	r3, r1, r3
10002154:	709e      	strb	r6, [r3, #2]
10002156:	1888      	adds	r0, r1, r2
10002158:	5c8a      	ldrb	r2, [r1, r2]
1000215a:	2a00      	cmp	r2, #0
1000215c:	d000      	beq.n	10002160 <ph_merge_two_pass+0x84>
1000215e:	705a      	strb	r2, [r3, #1]
10002160:	7004      	strb	r4, [r0, #0]
10002162:	0034      	movs	r4, r6
10002164:	e7c6      	b.n	100020f4 <ph_merge_two_pass+0x18>
10002166:	46c0      	nop			; (mov r8, r8)

10002168 <ph_remove_any_head>:
10002168:	b5f8      	push	{r3, r4, r5, r6, r7, lr}
1000216a:	4657      	mov	r7, sl
1000216c:	464e      	mov	r6, r9
1000216e:	4645      	mov	r5, r8
10002170:	46de      	mov	lr, fp
10002172:	004c      	lsls	r4, r1, #1
10002174:	b5e0      	push	{r5, r6, r7, lr}
10002176:	1864      	adds	r4, r4, r1
10002178:	0017      	movs	r7, r2
1000217a:	6802      	ldr	r2, [r0, #0]
1000217c:	3c03      	subs	r4, #3
1000217e:	0005      	movs	r5, r0
10002180:	5d10      	ldrb	r0, [r2, r4]
10002182:	1913      	adds	r3, r2, r4
10002184:	000e      	movs	r6, r1
10002186:	469c      	mov	ip, r3
10002188:	2800      	cmp	r0, #0
1000218a:	d052      	beq.n	10002232 <ph_remove_any_head+0xca>
1000218c:	0043      	lsls	r3, r0, #1
1000218e:	4698      	mov	r8, r3
10002190:	181b      	adds	r3, r3, r0
10002192:	3b03      	subs	r3, #3
10002194:	18d3      	adds	r3, r2, r3
10002196:	7859      	ldrb	r1, [r3, #1]
10002198:	468a      	mov	sl, r1
1000219a:	2900      	cmp	r1, #0
1000219c:	d119      	bne.n	100021d2 <ph_remove_any_head+0x6a>
1000219e:	2f00      	cmp	r7, #0
100021a0:	d00c      	beq.n	100021bc <ph_remove_any_head+0x54>
100021a2:	7bec      	ldrb	r4, [r5, #15]
100021a4:	2c00      	cmp	r4, #0
100021a6:	d050      	beq.n	1000224a <ph_remove_any_head+0xe2>
100021a8:	0063      	lsls	r3, r4, #1
100021aa:	191b      	adds	r3, r3, r4
100021ac:	18d3      	adds	r3, r2, r3
100021ae:	3b03      	subs	r3, #3
100021b0:	705e      	strb	r6, [r3, #1]
100021b2:	73ee      	strb	r6, [r5, #15]
100021b4:	4643      	mov	r3, r8
100021b6:	1819      	adds	r1, r3, r0
100021b8:	3903      	subs	r1, #3
100021ba:	1853      	adds	r3, r2, r1
100021bc:	2200      	movs	r2, #0
100021be:	709a      	strb	r2, [r3, #2]
100021c0:	2300      	movs	r3, #0
100021c2:	4662      	mov	r2, ip
100021c4:	7053      	strb	r3, [r2, #1]
100021c6:	bcf0      	pop	{r4, r5, r6, r7}
100021c8:	46bb      	mov	fp, r7
100021ca:	46b2      	mov	sl, r6
100021cc:	46a9      	mov	r9, r5
100021ce:	46a0      	mov	r8, r4
100021d0:	bdf8      	pop	{r3, r4, r5, r6, r7, pc}
100021d2:	0049      	lsls	r1, r1, #1
100021d4:	4451      	add	r1, sl
100021d6:	3903      	subs	r1, #3
100021d8:	1852      	adds	r2, r2, r1
100021da:	7851      	ldrb	r1, [r2, #1]
100021dc:	4688      	mov	r8, r1
100021de:	2100      	movs	r1, #0
100021e0:	7051      	strb	r1, [r2, #1]
100021e2:	4689      	mov	r9, r1
100021e4:	7059      	strb	r1, [r3, #1]
100021e6:	4652      	mov	r2, sl
100021e8:	0001      	movs	r1, r0
100021ea:	0028      	movs	r0, r5
100021ec:	f7ff ff2c 	bl	10002048 <ph_merge_nodes>
100021f0:	4643      	mov	r3, r8
100021f2:	4682      	mov	sl, r0
100021f4:	2b00      	cmp	r3, #0
100021f6:	d007      	beq.n	10002208 <ph_remove_any_head+0xa0>
100021f8:	005b      	lsls	r3, r3, #1
100021fa:	6829      	ldr	r1, [r5, #0]
100021fc:	4443      	add	r3, r8
100021fe:	3b03      	subs	r3, #3
10002200:	18cb      	adds	r3, r1, r3
10002202:	785a      	ldrb	r2, [r3, #1]
10002204:	2a00      	cmp	r2, #0
10002206:	d12c      	bne.n	10002262 <ph_remove_any_head+0xfa>
10002208:	4651      	mov	r1, sl
1000220a:	4642      	mov	r2, r8
1000220c:	0028      	movs	r0, r5
1000220e:	f7ff ff1b 	bl	10002048 <ph_merge_nodes>
10002212:	0001      	movs	r1, r0
10002214:	2f00      	cmp	r7, #0
10002216:	d01a      	beq.n	1000224e <ph_remove_any_head+0xe6>
10002218:	46a4      	mov	ip, r4
1000221a:	682a      	ldr	r2, [r5, #0]
1000221c:	7bef      	ldrb	r7, [r5, #15]
1000221e:	4494      	add	ip, r2
10002220:	2f00      	cmp	r7, #0
10002222:	d004      	beq.n	1000222e <ph_remove_any_head+0xc6>
10002224:	007b      	lsls	r3, r7, #1
10002226:	19db      	adds	r3, r3, r7
10002228:	18d3      	adds	r3, r2, r3
1000222a:	3b03      	subs	r3, #3
1000222c:	705e      	strb	r6, [r3, #1]
1000222e:	73ee      	strb	r6, [r5, #15]
10002230:	e010      	b.n	10002254 <ph_remove_any_head+0xec>
10002232:	2f00      	cmp	r7, #0
10002234:	d0c4      	beq.n	100021c0 <ph_remove_any_head+0x58>
10002236:	7be9      	ldrb	r1, [r5, #15]
10002238:	2900      	cmp	r1, #0
1000223a:	d010      	beq.n	1000225e <ph_remove_any_head+0xf6>
1000223c:	004b      	lsls	r3, r1, #1
1000223e:	185b      	adds	r3, r3, r1
10002240:	18d3      	adds	r3, r2, r3
10002242:	3b03      	subs	r3, #3
10002244:	705e      	strb	r6, [r3, #1]
10002246:	73ee      	strb	r6, [r5, #15]
10002248:	e7ba      	b.n	100021c0 <ph_remove_any_head+0x58>
1000224a:	73ee      	strb	r6, [r5, #15]
1000224c:	e7b6      	b.n	100021bc <ph_remove_any_head+0x54>
1000224e:	46a4      	mov	ip, r4
10002250:	682a      	ldr	r2, [r5, #0]
10002252:	4494      	add	ip, r2
10002254:	2900      	cmp	r1, #0
10002256:	d0b3      	beq.n	100021c0 <ph_remove_any_head+0x58>
10002258:	004b      	lsls	r3, r1, #1
1000225a:	4698      	mov	r8, r3
1000225c:	e7aa      	b.n	100021b4 <ph_remove_any_head+0x4c>
1000225e:	73ee      	strb	r6, [r5, #15]
10002260:	e7ae      	b.n	100021c0 <ph_remove_any_head+0x58>
10002262:	0050      	lsls	r0, r2, #1
10002264:	1880      	adds	r0, r0, r2
10002266:	3803      	subs	r0, #3
10002268:	1809      	adds	r1, r1, r0
1000226a:	7848      	ldrb	r0, [r1, #1]
1000226c:	4683      	mov	fp, r0
1000226e:	4648      	mov	r0, r9
10002270:	7048      	strb	r0, [r1, #1]
10002272:	7058      	strb	r0, [r3, #1]
10002274:	4641      	mov	r1, r8
10002276:	0028      	movs	r0, r5
10002278:	f7ff fee6 	bl	10002048 <ph_merge_nodes>
1000227c:	4659      	mov	r1, fp
1000227e:	4680      	mov	r8, r0
10002280:	0028      	movs	r0, r5
10002282:	f7ff ff2b 	bl	100020dc <ph_merge_two_pass>
10002286:	4641      	mov	r1, r8
10002288:	0002      	movs	r2, r0
1000228a:	0028      	movs	r0, r5
1000228c:	f7ff fedc 	bl	10002048 <ph_merge_nodes>
10002290:	4680      	mov	r8, r0
10002292:	e7b9      	b.n	10002208 <ph_remove_any_head+0xa0>

10002294 <ph_remove_head>:
10002294:	b5f8      	push	{r3, r4, r5, r6, r7, lr}
10002296:	4657      	mov	r7, sl
10002298:	464e      	mov	r6, r9
1000229a:	4645      	mov	r5, r8
1000229c:	46de      	mov	lr, fp
1000229e:	b5e0      	push	{r5, r6, r7, lr}
100022a0:	7b46      	ldrb	r6, [r0, #13]
100022a2:	6802      	ldr	r2, [r0, #0]
100022a4:	0075      	lsls	r5, r6, #1
100022a6:	19ad      	adds	r5, r5, r6
100022a8:	3d03      	subs	r5, #3
100022aa:	000f      	movs	r7, r1
100022ac:	5d51      	ldrb	r1, [r2, r5]
100022ae:	1953      	adds	r3, r2, r5
100022b0:	0004      	movs	r4, r0
100022b2:	469c      	mov	ip, r3
100022b4:	2900      	cmp	r1, #0
100022b6:	d053      	beq.n	10002360 <ph_remove_head+0xcc>
100022b8:	004b      	lsls	r3, r1, #1
100022ba:	4698      	mov	r8, r3
100022bc:	185b      	adds	r3, r3, r1
100022be:	3b03      	subs	r3, #3
100022c0:	18d3      	adds	r3, r2, r3
100022c2:	7858      	ldrb	r0, [r3, #1]
100022c4:	4682      	mov	sl, r0
100022c6:	2800      	cmp	r0, #0
100022c8:	d11b      	bne.n	10002302 <ph_remove_head+0x6e>
100022ca:	2f00      	cmp	r7, #0
100022cc:	d00c      	beq.n	100022e8 <ph_remove_head+0x54>
100022ce:	7be5      	ldrb	r5, [r4, #15]
100022d0:	2d00      	cmp	r5, #0
100022d2:	d051      	beq.n	10002378 <ph_remove_head+0xe4>
100022d4:	006b      	lsls	r3, r5, #1
100022d6:	195b      	adds	r3, r3, r5
100022d8:	18d3      	adds	r3, r2, r3
100022da:	3b03      	subs	r3, #3
100022dc:	705e      	strb	r6, [r3, #1]
100022de:	73e6      	strb	r6, [r4, #15]
100022e0:	4643      	mov	r3, r8
100022e2:	1858      	adds	r0, r3, r1
100022e4:	3803      	subs	r0, #3
100022e6:	1813      	adds	r3, r2, r0
100022e8:	2200      	movs	r2, #0
100022ea:	709a      	strb	r2, [r3, #2]
100022ec:	2300      	movs	r3, #0
100022ee:	4662      	mov	r2, ip
100022f0:	0030      	movs	r0, r6
100022f2:	7053      	strb	r3, [r2, #1]
100022f4:	7361      	strb	r1, [r4, #13]
100022f6:	bcf0      	pop	{r4, r5, r6, r7}
100022f8:	46bb      	mov	fp, r7
100022fa:	46b2      	mov	sl, r6
100022fc:	46a9      	mov	r9, r5
100022fe:	46a0      	mov	r8, r4
10002300:	bdf8      	pop	{r3, r4, r5, r6, r7, pc}
10002302:	0040      	lsls	r0, r0, #1
10002304:	4450      	add	r0, sl
10002306:	3803      	subs	r0, #3
10002308:	1812      	adds	r2, r2, r0
1000230a:	7850      	ldrb	r0, [r2, #1]
1000230c:	4680      	mov	r8, r0
1000230e:	2000      	movs	r0, #0
10002310:	7050      	strb	r0, [r2, #1]
10002312:	4681      	mov	r9, r0
10002314:	7058      	strb	r0, [r3, #1]
10002316:	4652      	mov	r2, sl
10002318:	0020      	movs	r0, r4
1000231a:	f7ff fe95 	bl	10002048 <ph_merge_nodes>
1000231e:	4643      	mov	r3, r8
10002320:	4682      	mov	sl, r0
10002322:	2b00      	cmp	r3, #0
10002324:	d007      	beq.n	10002336 <ph_remove_head+0xa2>
10002326:	005b      	lsls	r3, r3, #1
10002328:	6821      	ldr	r1, [r4, #0]
1000232a:	4443      	add	r3, r8
1000232c:	3b03      	subs	r3, #3
1000232e:	18cb      	adds	r3, r1, r3
10002330:	785a      	ldrb	r2, [r3, #1]
10002332:	2a00      	cmp	r2, #0
10002334:	d12c      	bne.n	10002390 <ph_remove_head+0xfc>
10002336:	4651      	mov	r1, sl
10002338:	4642      	mov	r2, r8
1000233a:	0020      	movs	r0, r4
1000233c:	f7ff fe84 	bl	10002048 <ph_merge_nodes>
10002340:	0001      	movs	r1, r0
10002342:	2f00      	cmp	r7, #0
10002344:	d01a      	beq.n	1000237c <ph_remove_head+0xe8>
10002346:	46ac      	mov	ip, r5
10002348:	6822      	ldr	r2, [r4, #0]
1000234a:	7be7      	ldrb	r7, [r4, #15]
1000234c:	4494      	add	ip, r2
1000234e:	2f00      	cmp	r7, #0
10002350:	d004      	beq.n	1000235c <ph_remove_head+0xc8>
10002352:	007b      	lsls	r3, r7, #1
10002354:	19db      	adds	r3, r3, r7
10002356:	18d3      	adds	r3, r2, r3
10002358:	3b03      	subs	r3, #3
1000235a:	705e      	strb	r6, [r3, #1]
1000235c:	73e6      	strb	r6, [r4, #15]
1000235e:	e010      	b.n	10002382 <ph_remove_head+0xee>
10002360:	2f00      	cmp	r7, #0
10002362:	d0c3      	beq.n	100022ec <ph_remove_head+0x58>
10002364:	7bc0      	ldrb	r0, [r0, #15]
10002366:	2800      	cmp	r0, #0
10002368:	d010      	beq.n	1000238c <ph_remove_head+0xf8>
1000236a:	0043      	lsls	r3, r0, #1
1000236c:	181b      	adds	r3, r3, r0
1000236e:	18d3      	adds	r3, r2, r3
10002370:	3b03      	subs	r3, #3
10002372:	705e      	strb	r6, [r3, #1]
10002374:	73e6      	strb	r6, [r4, #15]
10002376:	e7b9      	b.n	100022ec <ph_remove_head+0x58>
10002378:	73e6      	strb	r6, [r4, #15]
1000237a:	e7b5      	b.n	100022e8 <ph_remove_head+0x54>
1000237c:	46ac      	mov	ip, r5
1000237e:	6822      	ldr	r2, [r4, #0]
10002380:	4494      	add	ip, r2
10002382:	2800      	cmp	r0, #0
10002384:	d0b2      	beq.n	100022ec <ph_remove_head+0x58>
10002386:	0043      	lsls	r3, r0, #1
10002388:	4698      	mov	r8, r3
1000238a:	e7a9      	b.n	100022e0 <ph_remove_head+0x4c>
1000238c:	73e6      	strb	r6, [r4, #15]
1000238e:	e7ad      	b.n	100022ec <ph_remove_head+0x58>
10002390:	0050      	lsls	r0, r2, #1
10002392:	1880      	adds	r0, r0, r2
10002394:	3803      	subs	r0, #3
10002396:	1809      	adds	r1, r1, r0
10002398:	7848      	ldrb	r0, [r1, #1]
1000239a:	4683      	mov	fp, r0
1000239c:	4648      	mov	r0, r9
1000239e:	7048      	strb	r0, [r1, #1]
100023a0:	7058      	strb	r0, [r3, #1]
100023a2:	4641      	mov	r1, r8
100023a4:	0020      	movs	r0, r4
100023a6:	f7ff fe4f 	bl	10002048 <ph_merge_nodes>
100023aa:	4659      	mov	r1, fp
100023ac:	4680      	mov	r8, r0
100023ae:	0020      	movs	r0, r4
100023b0:	f7ff fe94 	bl	100020dc <ph_merge_two_pass>
100023b4:	4641      	mov	r1, r8
100023b6:	0002      	movs	r2, r0
100023b8:	0020      	movs	r0, r4
100023ba:	f7ff fe45 	bl	10002048 <ph_merge_nodes>
100023be:	4680      	mov	r8, r0
100023c0:	e7b9      	b.n	10002336 <ph_remove_head+0xa2>
100023c2:	46c0      	nop			; (mov r8, r8)

100023c4 <ph_remove_and_free_node>:
100023c4:	b570      	push	{r4, r5, r6, lr}
100023c6:	0005      	movs	r5, r0
100023c8:	2900      	cmp	r1, #0
100023ca:	d02c      	beq.n	10002426 <ph_remove_and_free_node+0x62>
100023cc:	7b43      	ldrb	r3, [r0, #13]
100023ce:	428b      	cmp	r3, r1
100023d0:	d02e      	beq.n	10002430 <ph_remove_and_free_node+0x6c>
100023d2:	004c      	lsls	r4, r1, #1
100023d4:	6800      	ldr	r0, [r0, #0]
100023d6:	1864      	adds	r4, r4, r1
100023d8:	3c03      	subs	r4, #3
100023da:	1904      	adds	r4, r0, r4
100023dc:	78a2      	ldrb	r2, [r4, #2]
100023de:	2a00      	cmp	r2, #0
100023e0:	d021      	beq.n	10002426 <ph_remove_and_free_node+0x62>
100023e2:	0053      	lsls	r3, r2, #1
100023e4:	189b      	adds	r3, r3, r2
100023e6:	3b03      	subs	r3, #3
100023e8:	5cc2      	ldrb	r2, [r0, r3]
100023ea:	18c6      	adds	r6, r0, r3
100023ec:	428a      	cmp	r2, r1
100023ee:	d102      	bne.n	100023f6 <ph_remove_and_free_node+0x32>
100023f0:	e01b      	b.n	1000242a <ph_remove_and_free_node+0x66>
100023f2:	2a00      	cmp	r2, #0
100023f4:	d008      	beq.n	10002408 <ph_remove_and_free_node+0x44>
100023f6:	0053      	lsls	r3, r2, #1
100023f8:	189b      	adds	r3, r3, r2
100023fa:	3b03      	subs	r3, #3
100023fc:	18c3      	adds	r3, r0, r3
100023fe:	785a      	ldrb	r2, [r3, #1]
10002400:	428a      	cmp	r2, r1
10002402:	d1f6      	bne.n	100023f2 <ph_remove_and_free_node+0x2e>
10002404:	7862      	ldrb	r2, [r4, #1]
10002406:	705a      	strb	r2, [r3, #1]
10002408:	2300      	movs	r3, #0
1000240a:	2201      	movs	r2, #1
1000240c:	0028      	movs	r0, r5
1000240e:	70a3      	strb	r3, [r4, #2]
10002410:	7063      	strb	r3, [r4, #1]
10002412:	f7ff fea9 	bl	10002168 <ph_remove_any_head>
10002416:	7b69      	ldrb	r1, [r5, #13]
10002418:	0002      	movs	r2, r0
1000241a:	0028      	movs	r0, r5
1000241c:	f7ff fe14 	bl	10002048 <ph_merge_nodes>
10002420:	7368      	strb	r0, [r5, #13]
10002422:	2001      	movs	r0, #1
10002424:	e000      	b.n	10002428 <ph_remove_and_free_node+0x64>
10002426:	2000      	movs	r0, #0
10002428:	bd70      	pop	{r4, r5, r6, pc}
1000242a:	7863      	ldrb	r3, [r4, #1]
1000242c:	7033      	strb	r3, [r6, #0]
1000242e:	e7eb      	b.n	10002408 <ph_remove_and_free_node+0x44>
10002430:	2201      	movs	r2, #1
10002432:	0019      	movs	r1, r3
10002434:	f7ff fe98 	bl	10002168 <ph_remove_any_head>
10002438:	e7f2      	b.n	10002420 <ph_remove_and_free_node+0x5c>
1000243a:	46c0      	nop			; (mov r8, r8)

1000243c <mutex_init>:
1000243c:	b510      	push	{r4, lr}
1000243e:	0004      	movs	r4, r0
10002440:	f7fe fe28 	bl	10001094 <next_striped_spin_lock_num>
10002444:	0001      	movs	r1, r0
10002446:	0020      	movs	r0, r4
10002448:	f7ff f8b6 	bl	100015b8 <lock_init>
1000244c:	23ff      	movs	r3, #255	; 0xff
1000244e:	7123      	strb	r3, [r4, #4]
10002450:	f3bf 8f5f 	dmb	sy
10002454:	bd10      	pop	{r4, pc}
10002456:	46c0      	nop			; (mov r8, r8)

10002458 <recursive_mutex_init>:
10002458:	b510      	push	{r4, lr}
1000245a:	0004      	movs	r4, r0
1000245c:	f7fe fe1a 	bl	10001094 <next_striped_spin_lock_num>
10002460:	0001      	movs	r1, r0
10002462:	0020      	movs	r0, r4
10002464:	f7ff f8a8 	bl	100015b8 <lock_init>
10002468:	23ff      	movs	r3, #255	; 0xff
1000246a:	80a3      	strh	r3, [r4, #4]
1000246c:	f3bf 8f5f 	dmb	sy
10002470:	bd10      	pop	{r4, pc}
10002472:	46c0      	nop			; (mov r8, r8)

10002474 <runtime_init>:
10002474:	4b2b      	ldr	r3, [pc, #172]	; (10002524 <runtime_init+0xb0>)
10002476:	4a2c      	ldr	r2, [pc, #176]	; (10002528 <runtime_init+0xb4>)
10002478:	b570      	push	{r4, r5, r6, lr}
1000247a:	601a      	str	r2, [r3, #0]
1000247c:	4a2b      	ldr	r2, [pc, #172]	; (1000252c <runtime_init+0xb8>)
1000247e:	4b2c      	ldr	r3, [pc, #176]	; (10002530 <runtime_init+0xbc>)
10002480:	492c      	ldr	r1, [pc, #176]	; (10002534 <runtime_init+0xc0>)
10002482:	601a      	str	r2, [r3, #0]
10002484:	0014      	movs	r4, r2
10002486:	688b      	ldr	r3, [r1, #8]
10002488:	439c      	bics	r4, r3
1000248a:	d1fb      	bne.n	10002484 <runtime_init+0x10>
1000248c:	4d2a      	ldr	r5, [pc, #168]	; (10002538 <runtime_init+0xc4>)
1000248e:	4e2b      	ldr	r6, [pc, #172]	; (1000253c <runtime_init+0xc8>)
10002490:	42b5      	cmp	r5, r6
10002492:	d208      	bcs.n	100024a6 <runtime_init+0x32>
10002494:	3e01      	subs	r6, #1
10002496:	1b76      	subs	r6, r6, r5
10002498:	08b6      	lsrs	r6, r6, #2
1000249a:	cd08      	ldmia	r5!, {r3}
1000249c:	4798      	blx	r3
1000249e:	0023      	movs	r3, r4
100024a0:	3401      	adds	r4, #1
100024a2:	42b3      	cmp	r3, r6
100024a4:	d1f9      	bne.n	1000249a <runtime_init+0x26>
100024a6:	f000 f895 	bl	100025d4 <clocks_init>
100024aa:	4a25      	ldr	r2, [pc, #148]	; (10002540 <runtime_init+0xcc>)
100024ac:	4b20      	ldr	r3, [pc, #128]	; (10002530 <runtime_init+0xbc>)
100024ae:	601a      	str	r2, [r3, #0]
100024b0:	4a20      	ldr	r2, [pc, #128]	; (10002534 <runtime_init+0xc0>)
100024b2:	6893      	ldr	r3, [r2, #8]
100024b4:	43db      	mvns	r3, r3
100024b6:	01db      	lsls	r3, r3, #7
100024b8:	09dd      	lsrs	r5, r3, #7
100024ba:	2b00      	cmp	r3, #0
100024bc:	d1f9      	bne.n	100024b2 <runtime_init+0x3e>
100024be:	2240      	movs	r2, #64	; 0x40
100024c0:	4b20      	ldr	r3, [pc, #128]	; (10002544 <runtime_init+0xd0>)
100024c2:	4e21      	ldr	r6, [pc, #132]	; (10002548 <runtime_init+0xd4>)
100024c4:	4c21      	ldr	r4, [pc, #132]	; (1000254c <runtime_init+0xd8>)
100024c6:	679a      	str	r2, [r3, #120]	; 0x78
100024c8:	675a      	str	r2, [r3, #116]	; 0x74
100024ca:	671a      	str	r2, [r3, #112]	; 0x70
100024cc:	66da      	str	r2, [r3, #108]	; 0x6c
100024ce:	42b4      	cmp	r4, r6
100024d0:	d208      	bcs.n	100024e4 <runtime_init+0x70>
100024d2:	6823      	ldr	r3, [r4, #0]
100024d4:	0020      	movs	r0, r4
100024d6:	3408      	adds	r4, #8
100024d8:	2b00      	cmp	r3, #0
100024da:	d01f      	beq.n	1000251c <runtime_init+0xa8>
100024dc:	f7ff ffbc 	bl	10002458 <recursive_mutex_init>
100024e0:	42b4      	cmp	r4, r6
100024e2:	d3f6      	bcc.n	100024d2 <runtime_init+0x5e>
100024e4:	4c1a      	ldr	r4, [pc, #104]	; (10002550 <runtime_init+0xdc>)
100024e6:	4e1b      	ldr	r6, [pc, #108]	; (10002554 <runtime_init+0xe0>)
100024e8:	22c0      	movs	r2, #192	; 0xc0
100024ea:	68b1      	ldr	r1, [r6, #8]
100024ec:	0020      	movs	r0, r4
100024ee:	f000 fb9d 	bl	10002c2c <__wrap___aeabi_memcpy>
100024f2:	60b4      	str	r4, [r6, #8]
100024f4:	f7fe fdc0 	bl	10001078 <spin_locks_reset>
100024f8:	f7ff f84c 	bl	10001594 <irq_init_priorities>
100024fc:	f7ff fa8c 	bl	10001a18 <alarm_pool_init_default>
10002500:	4c15      	ldr	r4, [pc, #84]	; (10002558 <runtime_init+0xe4>)
10002502:	4e16      	ldr	r6, [pc, #88]	; (1000255c <runtime_init+0xe8>)
10002504:	42b4      	cmp	r4, r6
10002506:	d208      	bcs.n	1000251a <runtime_init+0xa6>
10002508:	3e01      	subs	r6, #1
1000250a:	1b36      	subs	r6, r6, r4
1000250c:	08b6      	lsrs	r6, r6, #2
1000250e:	cc08      	ldmia	r4!, {r3}
10002510:	4798      	blx	r3
10002512:	002b      	movs	r3, r5
10002514:	3501      	adds	r5, #1
10002516:	429e      	cmp	r6, r3
10002518:	d1f9      	bne.n	1000250e <runtime_init+0x9a>
1000251a:	bd70      	pop	{r4, r5, r6, pc}
1000251c:	f7ff ff8e 	bl	1000243c <mutex_init>
10002520:	e7d5      	b.n	100024ce <runtime_init+0x5a>
10002522:	46c0      	nop			; (mov r8, r8)
10002524:	4000e000 	.word	0x4000e000
10002528:	fefbcdbf 	.word	0xfefbcdbf
1000252c:	003c7ffe 	.word	0x003c7ffe
10002530:	4000f000 	.word	0x4000f000
10002534:	4000c000 	.word	0x4000c000
10002538:	20000bac 	.word	0x20000bac
1000253c:	20000bbc 	.word	0x20000bbc
10002540:	01ffffff 	.word	0x01ffffff
10002544:	4001f000 	.word	0x4001f000
10002548:	20000bac 	.word	0x20000bac
1000254c:	20000ba4 	.word	0x20000ba4
10002550:	20000000 	.word	0x20000000
10002554:	e000ed00 	.word	0xe000ed00
10002558:	20000bbc 	.word	0x20000bbc
1000255c:	20000bc4 	.word	0x20000bc4

10002560 <_sbrk>:
10002560:	4a09      	ldr	r2, [pc, #36]	; (10002588 <_sbrk+0x28>)
10002562:	0003      	movs	r3, r0
10002564:	6810      	ldr	r0, [r2, #0]
10002566:	2800      	cmp	r0, #0
10002568:	d005      	beq.n	10002576 <_sbrk+0x16>
1000256a:	4908      	ldr	r1, [pc, #32]	; (1000258c <_sbrk+0x2c>)
1000256c:	18c3      	adds	r3, r0, r3
1000256e:	428b      	cmp	r3, r1
10002570:	d807      	bhi.n	10002582 <_sbrk+0x22>
10002572:	6013      	str	r3, [r2, #0]
10002574:	4770      	bx	lr
10002576:	4806      	ldr	r0, [pc, #24]	; (10002590 <_sbrk+0x30>)
10002578:	4904      	ldr	r1, [pc, #16]	; (1000258c <_sbrk+0x2c>)
1000257a:	18c3      	adds	r3, r0, r3
1000257c:	6010      	str	r0, [r2, #0]
1000257e:	428b      	cmp	r3, r1
10002580:	d9f7      	bls.n	10002572 <_sbrk+0x12>
10002582:	2001      	movs	r0, #1
10002584:	4240      	negs	r0, r0
10002586:	e7f5      	b.n	10002574 <_sbrk+0x14>
10002588:	200011a8 	.word	0x200011a8
1000258c:	20040000 	.word	0x20040000
10002590:	2000130c 	.word	0x2000130c

10002594 <exit>:
10002594:	be00      	bkpt	0x0000
10002596:	e7fd      	b.n	10002594 <exit>

10002598 <panic>:
10002598:	b40f      	push	{r0, r1, r2, r3}
1000259a:	b500      	push	{lr}
1000259c:	4808      	ldr	r0, [pc, #32]	; (100025c0 <panic+0x28>)
1000259e:	b083      	sub	sp, #12
100025a0:	f000 fbe6 	bl	10002d70 <__wrap_puts>
100025a4:	9b04      	ldr	r3, [sp, #16]
100025a6:	2b00      	cmp	r3, #0
100025a8:	d007      	beq.n	100025ba <panic+0x22>
100025aa:	a905      	add	r1, sp, #20
100025ac:	0018      	movs	r0, r3
100025ae:	9101      	str	r1, [sp, #4]
100025b0:	f000 f9e2 	bl	10002978 <weak_raw_vprintf>
100025b4:	4803      	ldr	r0, [pc, #12]	; (100025c4 <panic+0x2c>)
100025b6:	f000 fbdb 	bl	10002d70 <__wrap_puts>
100025ba:	be00      	bkpt	0x0000
100025bc:	e7fd      	b.n	100025ba <panic+0x22>
100025be:	46c0      	nop			; (mov r8, r8)
100025c0:	100038e4 	.word	0x100038e4
100025c4:	100038f4 	.word	0x100038f4

100025c8 <hard_assertion_failure>:
100025c8:	b510      	push	{r4, lr}
100025ca:	4801      	ldr	r0, [pc, #4]	; (100025d0 <hard_assertion_failure+0x8>)
100025cc:	f7ff ffe4 	bl	10002598 <panic>
100025d0:	100038f8 	.word	0x100038f8

100025d4 <clocks_init>:
100025d4:	b510      	push	{r4, lr}
100025d6:	200c      	movs	r0, #12
100025d8:	b082      	sub	sp, #8
100025da:	f000 f9a9 	bl	10002930 <watchdog_start_tick>
100025de:	f7fe fd43 	bl	10001068 <running_on_fpga>
100025e2:	2800      	cmp	r0, #0
100025e4:	d010      	beq.n	10002608 <clocks_init+0x34>
100025e6:	4b86      	ldr	r3, [pc, #536]	; (10002800 <clocks_init+0x22c>)
100025e8:	4886      	ldr	r0, [pc, #536]	; (10002804 <clocks_init+0x230>)
100025ea:	4986      	ldr	r1, [pc, #536]	; (10002804 <clocks_init+0x230>)
100025ec:	4a86      	ldr	r2, [pc, #536]	; (10002808 <clocks_init+0x234>)
100025ee:	6018      	str	r0, [r3, #0]
100025f0:	6059      	str	r1, [r3, #4]
100025f2:	6098      	str	r0, [r3, #8]
100025f4:	60d9      	str	r1, [r3, #12]
100025f6:	6118      	str	r0, [r3, #16]
100025f8:	6159      	str	r1, [r3, #20]
100025fa:	6198      	str	r0, [r3, #24]
100025fc:	61d9      	str	r1, [r3, #28]
100025fe:	6218      	str	r0, [r3, #32]
10002600:	6259      	str	r1, [r3, #36]	; 0x24
10002602:	625a      	str	r2, [r3, #36]	; 0x24
10002604:	b002      	add	sp, #8
10002606:	bd10      	pop	{r4, pc}
10002608:	4c80      	ldr	r4, [pc, #512]	; (1000280c <clocks_init+0x238>)
1000260a:	67a0      	str	r0, [r4, #120]	; 0x78
1000260c:	f000 f998 	bl	10002940 <xosc_init>
10002610:	2201      	movs	r2, #1
10002612:	4b7f      	ldr	r3, [pc, #508]	; (10002810 <clocks_init+0x23c>)
10002614:	601a      	str	r2, [r3, #0]
10002616:	6c63      	ldr	r3, [r4, #68]	; 0x44
10002618:	2b01      	cmp	r3, #1
1000261a:	d1fc      	bne.n	10002616 <clocks_init+0x42>
1000261c:	2203      	movs	r2, #3
1000261e:	4b7d      	ldr	r3, [pc, #500]	; (10002814 <clocks_init+0x240>)
10002620:	601a      	str	r2, [r3, #0]
10002622:	4a7a      	ldr	r2, [pc, #488]	; (1000280c <clocks_init+0x238>)
10002624:	6b93      	ldr	r3, [r2, #56]	; 0x38
10002626:	2b01      	cmp	r3, #1
10002628:	d1fc      	bne.n	10002624 <clocks_init+0x50>
1000262a:	3301      	adds	r3, #1
1000262c:	2101      	movs	r1, #1
1000262e:	4a7a      	ldr	r2, [pc, #488]	; (10002818 <clocks_init+0x244>)
10002630:	487a      	ldr	r0, [pc, #488]	; (1000281c <clocks_init+0x248>)
10002632:	9300      	str	r3, [sp, #0]
10002634:	3304      	adds	r3, #4
10002636:	f000 f927 	bl	10002888 <pll_init>
1000263a:	2305      	movs	r3, #5
1000263c:	4a78      	ldr	r2, [pc, #480]	; (10002820 <clocks_init+0x24c>)
1000263e:	9300      	str	r3, [sp, #0]
10002640:	2101      	movs	r1, #1
10002642:	4878      	ldr	r0, [pc, #480]	; (10002824 <clocks_init+0x250>)
10002644:	f000 f920 	bl	10002888 <pll_init>
10002648:	4b77      	ldr	r3, [pc, #476]	; (10002828 <clocks_init+0x254>)
1000264a:	685a      	ldr	r2, [r3, #4]
1000264c:	2aff      	cmp	r2, #255	; 0xff
1000264e:	d802      	bhi.n	10002656 <clocks_init+0x82>
10002650:	2280      	movs	r2, #128	; 0x80
10002652:	0052      	lsls	r2, r2, #1
10002654:	605a      	str	r2, [r3, #4]
10002656:	2280      	movs	r2, #128	; 0x80
10002658:	4b6e      	ldr	r3, [pc, #440]	; (10002814 <clocks_init+0x240>)
1000265a:	4c69      	ldr	r4, [pc, #420]	; (10002800 <clocks_init+0x22c>)
1000265c:	0112      	lsls	r2, r2, #4
1000265e:	601a      	str	r2, [r3, #0]
10002660:	6921      	ldr	r1, [r4, #16]
10002662:	2900      	cmp	r1, #0
10002664:	d005      	beq.n	10002672 <clocks_init+0x9e>
10002666:	6960      	ldr	r0, [r4, #20]
10002668:	f000 f9d8 	bl	10002a1c <__wrap___aeabi_uidiv>
1000266c:	3001      	adds	r0, #1
1000266e:	3801      	subs	r0, #1
10002670:	d1fd      	bne.n	1000266e <clocks_init+0x9a>
10002672:	22e0      	movs	r2, #224	; 0xe0
10002674:	4b6c      	ldr	r3, [pc, #432]	; (10002828 <clocks_init+0x254>)
10002676:	486d      	ldr	r0, [pc, #436]	; (1000282c <clocks_init+0x258>)
10002678:	6819      	ldr	r1, [r3, #0]
1000267a:	400a      	ands	r2, r1
1000267c:	6002      	str	r2, [r0, #0]
1000267e:	2202      	movs	r2, #2
10002680:	6819      	ldr	r1, [r3, #0]
10002682:	4051      	eors	r1, r2
10002684:	3201      	adds	r2, #1
10002686:	400a      	ands	r2, r1
10002688:	2104      	movs	r1, #4
1000268a:	6002      	str	r2, [r0, #0]
1000268c:	689a      	ldr	r2, [r3, #8]
1000268e:	4211      	tst	r1, r2
10002690:	d0fc      	beq.n	1000268c <clocks_init+0xb8>
10002692:	2180      	movs	r1, #128	; 0x80
10002694:	4a66      	ldr	r2, [pc, #408]	; (10002830 <clocks_init+0x25c>)
10002696:	0109      	lsls	r1, r1, #4
10002698:	6011      	str	r1, [r2, #0]
1000269a:	2280      	movs	r2, #128	; 0x80
1000269c:	0052      	lsls	r2, r2, #1
1000269e:	605a      	str	r2, [r3, #4]
100026a0:	4b64      	ldr	r3, [pc, #400]	; (10002834 <clocks_init+0x260>)
100026a2:	6123      	str	r3, [r4, #16]
100026a4:	4b64      	ldr	r3, [pc, #400]	; (10002838 <clocks_init+0x264>)
100026a6:	6859      	ldr	r1, [r3, #4]
100026a8:	29ff      	cmp	r1, #255	; 0xff
100026aa:	d800      	bhi.n	100026ae <clocks_init+0xda>
100026ac:	605a      	str	r2, [r3, #4]
100026ae:	2203      	movs	r2, #3
100026b0:	2101      	movs	r1, #1
100026b2:	4b57      	ldr	r3, [pc, #348]	; (10002810 <clocks_init+0x23c>)
100026b4:	601a      	str	r2, [r3, #0]
100026b6:	4a60      	ldr	r2, [pc, #384]	; (10002838 <clocks_init+0x264>)
100026b8:	6893      	ldr	r3, [r2, #8]
100026ba:	4219      	tst	r1, r3
100026bc:	d0fc      	beq.n	100026b8 <clocks_init+0xe4>
100026be:	23e0      	movs	r3, #224	; 0xe0
100026c0:	6810      	ldr	r0, [r2, #0]
100026c2:	4003      	ands	r3, r0
100026c4:	485d      	ldr	r0, [pc, #372]	; (1000283c <clocks_init+0x268>)
100026c6:	6003      	str	r3, [r0, #0]
100026c8:	6812      	ldr	r2, [r2, #0]
100026ca:	2303      	movs	r3, #3
100026cc:	404a      	eors	r2, r1
100026ce:	2102      	movs	r1, #2
100026d0:	4013      	ands	r3, r2
100026d2:	4a59      	ldr	r2, [pc, #356]	; (10002838 <clocks_init+0x264>)
100026d4:	6003      	str	r3, [r0, #0]
100026d6:	6893      	ldr	r3, [r2, #8]
100026d8:	4219      	tst	r1, r3
100026da:	d0fc      	beq.n	100026d6 <clocks_init+0x102>
100026dc:	2180      	movs	r1, #128	; 0x80
100026de:	4b58      	ldr	r3, [pc, #352]	; (10002840 <clocks_init+0x26c>)
100026e0:	0109      	lsls	r1, r1, #4
100026e2:	6019      	str	r1, [r3, #0]
100026e4:	2180      	movs	r1, #128	; 0x80
100026e6:	4b57      	ldr	r3, [pc, #348]	; (10002844 <clocks_init+0x270>)
100026e8:	0049      	lsls	r1, r1, #1
100026ea:	6051      	str	r1, [r2, #4]
100026ec:	6163      	str	r3, [r4, #20]
100026ee:	4b56      	ldr	r3, [pc, #344]	; (10002848 <clocks_init+0x274>)
100026f0:	685a      	ldr	r2, [r3, #4]
100026f2:	2aff      	cmp	r2, #255	; 0xff
100026f4:	d800      	bhi.n	100026f8 <clocks_init+0x124>
100026f6:	6059      	str	r1, [r3, #4]
100026f8:	2280      	movs	r2, #128	; 0x80
100026fa:	4b54      	ldr	r3, [pc, #336]	; (1000284c <clocks_init+0x278>)
100026fc:	0112      	lsls	r2, r2, #4
100026fe:	601a      	str	r2, [r3, #0]
10002700:	69e1      	ldr	r1, [r4, #28]
10002702:	2900      	cmp	r1, #0
10002704:	d005      	beq.n	10002712 <clocks_init+0x13e>
10002706:	6960      	ldr	r0, [r4, #20]
10002708:	f000 f988 	bl	10002a1c <__wrap___aeabi_uidiv>
1000270c:	3001      	adds	r0, #1
1000270e:	3801      	subs	r0, #1
10002710:	d1fd      	bne.n	1000270e <clocks_init+0x13a>
10002712:	23e0      	movs	r3, #224	; 0xe0
10002714:	4a4c      	ldr	r2, [pc, #304]	; (10002848 <clocks_init+0x274>)
10002716:	6811      	ldr	r1, [r2, #0]
10002718:	400b      	ands	r3, r1
1000271a:	494d      	ldr	r1, [pc, #308]	; (10002850 <clocks_init+0x27c>)
1000271c:	600b      	str	r3, [r1, #0]
1000271e:	2180      	movs	r1, #128	; 0x80
10002720:	4b4c      	ldr	r3, [pc, #304]	; (10002854 <clocks_init+0x280>)
10002722:	0109      	lsls	r1, r1, #4
10002724:	6019      	str	r1, [r3, #0]
10002726:	2180      	movs	r1, #128	; 0x80
10002728:	4b36      	ldr	r3, [pc, #216]	; (10002804 <clocks_init+0x230>)
1000272a:	0049      	lsls	r1, r1, #1
1000272c:	6051      	str	r1, [r2, #4]
1000272e:	61e3      	str	r3, [r4, #28]
10002730:	4b49      	ldr	r3, [pc, #292]	; (10002858 <clocks_init+0x284>)
10002732:	685a      	ldr	r2, [r3, #4]
10002734:	2aff      	cmp	r2, #255	; 0xff
10002736:	d800      	bhi.n	1000273a <clocks_init+0x166>
10002738:	6059      	str	r1, [r3, #4]
1000273a:	2280      	movs	r2, #128	; 0x80
1000273c:	4b47      	ldr	r3, [pc, #284]	; (1000285c <clocks_init+0x288>)
1000273e:	0112      	lsls	r2, r2, #4
10002740:	601a      	str	r2, [r3, #0]
10002742:	6a21      	ldr	r1, [r4, #32]
10002744:	2900      	cmp	r1, #0
10002746:	d005      	beq.n	10002754 <clocks_init+0x180>
10002748:	6960      	ldr	r0, [r4, #20]
1000274a:	f000 f967 	bl	10002a1c <__wrap___aeabi_uidiv>
1000274e:	3001      	adds	r0, #1
10002750:	3801      	subs	r0, #1
10002752:	d1fd      	bne.n	10002750 <clocks_init+0x17c>
10002754:	23e0      	movs	r3, #224	; 0xe0
10002756:	4a40      	ldr	r2, [pc, #256]	; (10002858 <clocks_init+0x284>)
10002758:	6811      	ldr	r1, [r2, #0]
1000275a:	400b      	ands	r3, r1
1000275c:	4940      	ldr	r1, [pc, #256]	; (10002860 <clocks_init+0x28c>)
1000275e:	600b      	str	r3, [r1, #0]
10002760:	2180      	movs	r1, #128	; 0x80
10002762:	4b40      	ldr	r3, [pc, #256]	; (10002864 <clocks_init+0x290>)
10002764:	0109      	lsls	r1, r1, #4
10002766:	6019      	str	r1, [r3, #0]
10002768:	2380      	movs	r3, #128	; 0x80
1000276a:	005b      	lsls	r3, r3, #1
1000276c:	6053      	str	r3, [r2, #4]
1000276e:	2280      	movs	r2, #128	; 0x80
10002770:	4b24      	ldr	r3, [pc, #144]	; (10002804 <clocks_init+0x230>)
10002772:	02d2      	lsls	r2, r2, #11
10002774:	6223      	str	r3, [r4, #32]
10002776:	4b3c      	ldr	r3, [pc, #240]	; (10002868 <clocks_init+0x294>)
10002778:	6859      	ldr	r1, [r3, #4]
1000277a:	4291      	cmp	r1, r2
1000277c:	d200      	bcs.n	10002780 <clocks_init+0x1ac>
1000277e:	605a      	str	r2, [r3, #4]
10002780:	2280      	movs	r2, #128	; 0x80
10002782:	4b3a      	ldr	r3, [pc, #232]	; (1000286c <clocks_init+0x298>)
10002784:	0112      	lsls	r2, r2, #4
10002786:	601a      	str	r2, [r3, #0]
10002788:	6a61      	ldr	r1, [r4, #36]	; 0x24
1000278a:	2900      	cmp	r1, #0
1000278c:	d005      	beq.n	1000279a <clocks_init+0x1c6>
1000278e:	6960      	ldr	r0, [r4, #20]
10002790:	f000 f944 	bl	10002a1c <__wrap___aeabi_uidiv>
10002794:	3001      	adds	r0, #1
10002796:	3801      	subs	r0, #1
10002798:	d1fd      	bne.n	10002796 <clocks_init+0x1c2>
1000279a:	23e0      	movs	r3, #224	; 0xe0
1000279c:	4a32      	ldr	r2, [pc, #200]	; (10002868 <clocks_init+0x294>)
1000279e:	6811      	ldr	r1, [r2, #0]
100027a0:	400b      	ands	r3, r1
100027a2:	4933      	ldr	r1, [pc, #204]	; (10002870 <clocks_init+0x29c>)
100027a4:	600b      	str	r3, [r1, #0]
100027a6:	2180      	movs	r1, #128	; 0x80
100027a8:	4b32      	ldr	r3, [pc, #200]	; (10002874 <clocks_init+0x2a0>)
100027aa:	0109      	lsls	r1, r1, #4
100027ac:	6019      	str	r1, [r3, #0]
100027ae:	2380      	movs	r3, #128	; 0x80
100027b0:	02db      	lsls	r3, r3, #11
100027b2:	6053      	str	r3, [r2, #4]
100027b4:	4b14      	ldr	r3, [pc, #80]	; (10002808 <clocks_init+0x234>)
100027b6:	6263      	str	r3, [r4, #36]	; 0x24
100027b8:	4b2f      	ldr	r3, [pc, #188]	; (10002878 <clocks_init+0x2a4>)
100027ba:	685a      	ldr	r2, [r3, #4]
100027bc:	2aff      	cmp	r2, #255	; 0xff
100027be:	d802      	bhi.n	100027c6 <clocks_init+0x1f2>
100027c0:	2280      	movs	r2, #128	; 0x80
100027c2:	0052      	lsls	r2, r2, #1
100027c4:	605a      	str	r2, [r3, #4]
100027c6:	2280      	movs	r2, #128	; 0x80
100027c8:	4b2c      	ldr	r3, [pc, #176]	; (1000287c <clocks_init+0x2a8>)
100027ca:	0112      	lsls	r2, r2, #4
100027cc:	601a      	str	r2, [r3, #0]
100027ce:	69a1      	ldr	r1, [r4, #24]
100027d0:	2900      	cmp	r1, #0
100027d2:	d005      	beq.n	100027e0 <clocks_init+0x20c>
100027d4:	6960      	ldr	r0, [r4, #20]
100027d6:	f000 f921 	bl	10002a1c <__wrap___aeabi_uidiv>
100027da:	3001      	adds	r0, #1
100027dc:	3801      	subs	r0, #1
100027de:	d1fd      	bne.n	100027dc <clocks_init+0x208>
100027e0:	23e0      	movs	r3, #224	; 0xe0
100027e2:	4a25      	ldr	r2, [pc, #148]	; (10002878 <clocks_init+0x2a4>)
100027e4:	6811      	ldr	r1, [r2, #0]
100027e6:	400b      	ands	r3, r1
100027e8:	4925      	ldr	r1, [pc, #148]	; (10002880 <clocks_init+0x2ac>)
100027ea:	600b      	str	r3, [r1, #0]
100027ec:	2180      	movs	r1, #128	; 0x80
100027ee:	4b25      	ldr	r3, [pc, #148]	; (10002884 <clocks_init+0x2b0>)
100027f0:	0109      	lsls	r1, r1, #4
100027f2:	6019      	str	r1, [r3, #0]
100027f4:	2380      	movs	r3, #128	; 0x80
100027f6:	005b      	lsls	r3, r3, #1
100027f8:	6053      	str	r3, [r2, #4]
100027fa:	4b12      	ldr	r3, [pc, #72]	; (10002844 <clocks_init+0x270>)
100027fc:	61a3      	str	r3, [r4, #24]
100027fe:	e701      	b.n	10002604 <clocks_init+0x30>
10002800:	20000bc8 	.word	0x20000bc8
10002804:	02dc6c00 	.word	0x02dc6c00
10002808:	0000b71b 	.word	0x0000b71b
1000280c:	40008000 	.word	0x40008000
10002810:	4000b03c 	.word	0x4000b03c
10002814:	4000b030 	.word	0x4000b030
10002818:	59682f00 	.word	0x59682f00
1000281c:	40028000 	.word	0x40028000
10002820:	47868c00 	.word	0x47868c00
10002824:	4002c000 	.word	0x4002c000
10002828:	40008030 	.word	0x40008030
1000282c:	40009030 	.word	0x40009030
10002830:	4000a030 	.word	0x4000a030
10002834:	00b71b00 	.word	0x00b71b00
10002838:	4000803c 	.word	0x4000803c
1000283c:	4000903c 	.word	0x4000903c
10002840:	4000a03c 	.word	0x4000a03c
10002844:	07735940 	.word	0x07735940
10002848:	40008054 	.word	0x40008054
1000284c:	4000b054 	.word	0x4000b054
10002850:	40009054 	.word	0x40009054
10002854:	4000a054 	.word	0x4000a054
10002858:	40008060 	.word	0x40008060
1000285c:	4000b060 	.word	0x4000b060
10002860:	40009060 	.word	0x40009060
10002864:	4000a060 	.word	0x4000a060
10002868:	4000806c 	.word	0x4000806c
1000286c:	4000b06c 	.word	0x4000b06c
10002870:	4000906c 	.word	0x4000906c
10002874:	4000a06c 	.word	0x4000a06c
10002878:	40008048 	.word	0x40008048
1000287c:	4000b048 	.word	0x4000b048
10002880:	40009048 	.word	0x40009048
10002884:	4000a048 	.word	0x4000a048

10002888 <pll_init>:
10002888:	b5f8      	push	{r3, r4, r5, r6, r7, lr}
1000288a:	0004      	movs	r4, r0
1000288c:	200c      	movs	r0, #12
1000288e:	0017      	movs	r7, r2
10002890:	001d      	movs	r5, r3
10002892:	000e      	movs	r6, r1
10002894:	f000 f8c2 	bl	10002a1c <__wrap___aeabi_uidiv>
10002898:	0143      	lsls	r3, r0, #5
1000289a:	1a1b      	subs	r3, r3, r0
1000289c:	0199      	lsls	r1, r3, #6
1000289e:	1ac9      	subs	r1, r1, r3
100028a0:	00c9      	lsls	r1, r1, #3
100028a2:	1809      	adds	r1, r1, r0
100028a4:	0189      	lsls	r1, r1, #6
100028a6:	0038      	movs	r0, r7
100028a8:	f000 f8b8 	bl	10002a1c <__wrap___aeabi_uidiv>
100028ac:	9b06      	ldr	r3, [sp, #24]
100028ae:	0429      	lsls	r1, r5, #16
100028b0:	031b      	lsls	r3, r3, #12
100028b2:	4319      	orrs	r1, r3
100028b4:	6823      	ldr	r3, [r4, #0]
100028b6:	2b00      	cmp	r3, #0
100028b8:	db20      	blt.n	100028fc <pll_init+0x74>
100028ba:	4b19      	ldr	r3, [pc, #100]	; (10002920 <pll_init+0x98>)
100028bc:	4d19      	ldr	r5, [pc, #100]	; (10002924 <pll_init+0x9c>)
100028be:	18e3      	adds	r3, r4, r3
100028c0:	425a      	negs	r2, r3
100028c2:	4153      	adcs	r3, r2
100028c4:	2280      	movs	r2, #128	; 0x80
100028c6:	0152      	lsls	r2, r2, #5
100028c8:	4694      	mov	ip, r2
100028ca:	031b      	lsls	r3, r3, #12
100028cc:	4a16      	ldr	r2, [pc, #88]	; (10002928 <pll_init+0xa0>)
100028ce:	4463      	add	r3, ip
100028d0:	6013      	str	r3, [r2, #0]
100028d2:	4a16      	ldr	r2, [pc, #88]	; (1000292c <pll_init+0xa4>)
100028d4:	6013      	str	r3, [r2, #0]
100028d6:	001f      	movs	r7, r3
100028d8:	68aa      	ldr	r2, [r5, #8]
100028da:	4397      	bics	r7, r2
100028dc:	d1fb      	bne.n	100028d6 <pll_init+0x4e>
100028de:	23c0      	movs	r3, #192	; 0xc0
100028e0:	1d22      	adds	r2, r4, #4
100028e2:	019b      	lsls	r3, r3, #6
100028e4:	4313      	orrs	r3, r2
100028e6:	2221      	movs	r2, #33	; 0x21
100028e8:	6026      	str	r6, [r4, #0]
100028ea:	60a0      	str	r0, [r4, #8]
100028ec:	601a      	str	r2, [r3, #0]
100028ee:	6822      	ldr	r2, [r4, #0]
100028f0:	2a00      	cmp	r2, #0
100028f2:	dafc      	bge.n	100028ee <pll_init+0x66>
100028f4:	2208      	movs	r2, #8
100028f6:	60e1      	str	r1, [r4, #12]
100028f8:	601a      	str	r2, [r3, #0]
100028fa:	bdf8      	pop	{r3, r4, r5, r6, r7, pc}
100028fc:	233f      	movs	r3, #63	; 0x3f
100028fe:	6822      	ldr	r2, [r4, #0]
10002900:	4013      	ands	r3, r2
10002902:	42b3      	cmp	r3, r6
10002904:	d1d9      	bne.n	100028ba <pll_init+0x32>
10002906:	68a3      	ldr	r3, [r4, #8]
10002908:	051b      	lsls	r3, r3, #20
1000290a:	0d1b      	lsrs	r3, r3, #20
1000290c:	4283      	cmp	r3, r0
1000290e:	d1d4      	bne.n	100028ba <pll_init+0x32>
10002910:	22ee      	movs	r2, #238	; 0xee
10002912:	68e3      	ldr	r3, [r4, #12]
10002914:	02d2      	lsls	r2, r2, #11
10002916:	4013      	ands	r3, r2
10002918:	428b      	cmp	r3, r1
1000291a:	d1ce      	bne.n	100028ba <pll_init+0x32>
1000291c:	e7ed      	b.n	100028fa <pll_init+0x72>
1000291e:	46c0      	nop			; (mov r8, r8)
10002920:	bffd4000 	.word	0xbffd4000
10002924:	4000c000 	.word	0x4000c000
10002928:	4000e000 	.word	0x4000e000
1000292c:	4000f000 	.word	0x4000f000

10002930 <watchdog_start_tick>:
10002930:	2380      	movs	r3, #128	; 0x80
10002932:	4a02      	ldr	r2, [pc, #8]	; (1000293c <watchdog_start_tick+0xc>)
10002934:	009b      	lsls	r3, r3, #2
10002936:	4303      	orrs	r3, r0
10002938:	62d3      	str	r3, [r2, #44]	; 0x2c
1000293a:	4770      	bx	lr
1000293c:	40058000 	.word	0x40058000

10002940 <xosc_init>:
10002940:	23aa      	movs	r3, #170	; 0xaa
10002942:	4a06      	ldr	r2, [pc, #24]	; (1000295c <xosc_init+0x1c>)
10002944:	011b      	lsls	r3, r3, #4
10002946:	6013      	str	r3, [r2, #0]
10002948:	232f      	movs	r3, #47	; 0x2f
1000294a:	4905      	ldr	r1, [pc, #20]	; (10002960 <xosc_init+0x20>)
1000294c:	60d3      	str	r3, [r2, #12]
1000294e:	4b05      	ldr	r3, [pc, #20]	; (10002964 <xosc_init+0x24>)
10002950:	6019      	str	r1, [r3, #0]
10002952:	6853      	ldr	r3, [r2, #4]
10002954:	2b00      	cmp	r3, #0
10002956:	dafc      	bge.n	10002952 <xosc_init+0x12>
10002958:	4770      	bx	lr
1000295a:	46c0      	nop			; (mov r8, r8)
1000295c:	40024000 	.word	0x40024000
10002960:	00fab000 	.word	0x00fab000
10002964:	40026000 	.word	0x40026000

10002968 <_out_char>:
10002968:	b510      	push	{r4, lr}
1000296a:	2800      	cmp	r0, #0
1000296c:	d100      	bne.n	10002970 <_out_char+0x8>
1000296e:	bd10      	pop	{r4, pc}
10002970:	f000 f9ac 	bl	10002ccc <__wrap_putchar>
10002974:	e7fb      	b.n	1000296e <_out_char+0x6>
10002976:	46c0      	nop			; (mov r8, r8)

10002978 <weak_raw_vprintf>:
10002978:	b510      	push	{r4, lr}
1000297a:	4a09      	ldr	r2, [pc, #36]	; (100029a0 <weak_raw_vprintf+0x28>)
1000297c:	0003      	movs	r3, r0
1000297e:	6814      	ldr	r4, [r2, #0]
10002980:	b084      	sub	sp, #16
10002982:	2c00      	cmp	r4, #0
10002984:	d008      	beq.n	10002998 <weak_raw_vprintf+0x20>
10002986:	2201      	movs	r2, #1
10002988:	9100      	str	r1, [sp, #0]
1000298a:	4806      	ldr	r0, [pc, #24]	; (100029a4 <weak_raw_vprintf+0x2c>)
1000298c:	4252      	negs	r2, r2
1000298e:	a903      	add	r1, sp, #12
10002990:	47a0      	blx	r4
10002992:	2001      	movs	r0, #1
10002994:	b004      	add	sp, #16
10002996:	bd10      	pop	{r4, pc}
10002998:	f000 f9ea 	bl	10002d70 <__wrap_puts>
1000299c:	2000      	movs	r0, #0
1000299e:	e7f9      	b.n	10002994 <weak_raw_vprintf+0x1c>
100029a0:	200011ac 	.word	0x200011ac
100029a4:	10002969 	.word	0x10002969

100029a8 <__aeabi_bits_init>:
100029a8:	4801      	ldr	r0, [pc, #4]	; (100029b0 <__aeabi_bits_init+0x8>)
100029aa:	2104      	movs	r1, #4
100029ac:	4b01      	ldr	r3, [pc, #4]	; (100029b4 <__aeabi_bits_init+0xc>)
100029ae:	4718      	bx	r3
100029b0:	20000340 	.word	0x20000340
100029b4:	100029d9 	.word	0x100029d9

100029b8 <rom_func_lookup>:
100029b8:	2314      	movs	r3, #20
100029ba:	b510      	push	{r4, lr}
100029bc:	0001      	movs	r1, r0
100029be:	8818      	ldrh	r0, [r3, #0]
100029c0:	3304      	adds	r3, #4
100029c2:	881b      	ldrh	r3, [r3, #0]
100029c4:	4798      	blx	r3
100029c6:	bd10      	pop	{r4, pc}

100029c8 <rom_data_lookup>:
100029c8:	2316      	movs	r3, #22
100029ca:	b510      	push	{r4, lr}
100029cc:	0001      	movs	r1, r0
100029ce:	8818      	ldrh	r0, [r3, #0]
100029d0:	3302      	adds	r3, #2
100029d2:	881b      	ldrh	r3, [r3, #0]
100029d4:	4798      	blx	r3
100029d6:	bd10      	pop	{r4, pc}

100029d8 <rom_funcs_lookup>:
100029d8:	b5f8      	push	{r3, r4, r5, r6, r7, lr}
100029da:	4647      	mov	r7, r8
100029dc:	46ce      	mov	lr, r9
100029de:	b580      	push	{r7, lr}
100029e0:	1e0f      	subs	r7, r1, #0
100029e2:	d019      	beq.n	10002a18 <rom_funcs_lookup+0x40>
100029e4:	2314      	movs	r3, #20
100029e6:	4699      	mov	r9, r3
100029e8:	3304      	adds	r3, #4
100029ea:	0004      	movs	r4, r0
100029ec:	2500      	movs	r5, #0
100029ee:	2601      	movs	r6, #1
100029f0:	4698      	mov	r8, r3
100029f2:	464b      	mov	r3, r9
100029f4:	8818      	ldrh	r0, [r3, #0]
100029f6:	4643      	mov	r3, r8
100029f8:	6821      	ldr	r1, [r4, #0]
100029fa:	881b      	ldrh	r3, [r3, #0]
100029fc:	4798      	blx	r3
100029fe:	c401      	stmia	r4!, {r0}
10002a00:	1e43      	subs	r3, r0, #1
10002a02:	4198      	sbcs	r0, r3
10002a04:	3501      	adds	r5, #1
10002a06:	4240      	negs	r0, r0
10002a08:	4006      	ands	r6, r0
10002a0a:	42af      	cmp	r7, r5
10002a0c:	d1f1      	bne.n	100029f2 <rom_funcs_lookup+0x1a>
10002a0e:	0030      	movs	r0, r6
10002a10:	bcc0      	pop	{r6, r7}
10002a12:	46b9      	mov	r9, r7
10002a14:	46b0      	mov	r8, r6
10002a16:	bdf8      	pop	{r3, r4, r5, r6, r7, pc}
10002a18:	2601      	movs	r6, #1
10002a1a:	e7f8      	b.n	10002a0e <rom_funcs_lookup+0x36>

10002a1c <__wrap___aeabi_uidiv>:
10002a1c:	4a11      	ldr	r2, [pc, #68]	; (10002a64 <divmod_u32u32_savestate+0x18>)
10002a1e:	6f93      	ldr	r3, [r2, #120]	; 0x78
10002a20:	089b      	lsrs	r3, r3, #2
10002a22:	d213      	bcs.n	10002a4c <divmod_u32u32_savestate>

10002a24 <divmod_u32u32_unsafe>:
10002a24:	6610      	str	r0, [r2, #96]	; 0x60
10002a26:	6651      	str	r1, [r2, #100]	; 0x64
10002a28:	2900      	cmp	r1, #0
10002a2a:	d005      	beq.n	10002a38 <divmod_u32u32_unsafe+0x14>
10002a2c:	e7ff      	b.n	10002a2e <divmod_u32u32_unsafe+0xa>
10002a2e:	e7ff      	b.n	10002a30 <divmod_u32u32_unsafe+0xc>
10002a30:	e7ff      	b.n	10002a32 <divmod_u32u32_unsafe+0xe>
10002a32:	6f51      	ldr	r1, [r2, #116]	; 0x74
10002a34:	6f10      	ldr	r0, [r2, #112]	; 0x70
10002a36:	4770      	bx	lr
10002a38:	b504      	push	{r2, lr}
10002a3a:	2800      	cmp	r0, #0
10002a3c:	d001      	beq.n	10002a42 <divmod_u32u32_unsafe+0x1e>
10002a3e:	2000      	movs	r0, #0
10002a40:	43c0      	mvns	r0, r0
10002a42:	f000 fef5 	bl	10003830 <____aeabi_idiv0_veneer>
10002a46:	2100      	movs	r1, #0
10002a48:	bd04      	pop	{r2, pc}
10002a4a:	46c0      	nop			; (mov r8, r8)

10002a4c <divmod_u32u32_savestate>:
10002a4c:	b5f0      	push	{r4, r5, r6, r7, lr}
10002a4e:	6e14      	ldr	r4, [r2, #96]	; 0x60
10002a50:	6e55      	ldr	r5, [r2, #100]	; 0x64
10002a52:	6f57      	ldr	r7, [r2, #116]	; 0x74
10002a54:	6f16      	ldr	r6, [r2, #112]	; 0x70
10002a56:	f7ff ffe5 	bl	10002a24 <divmod_u32u32_unsafe>
10002a5a:	6614      	str	r4, [r2, #96]	; 0x60
10002a5c:	6655      	str	r5, [r2, #100]	; 0x64
10002a5e:	6757      	str	r7, [r2, #116]	; 0x74
10002a60:	6716      	str	r6, [r2, #112]	; 0x70
10002a62:	bdf0      	pop	{r4, r5, r6, r7, pc}
10002a64:	d0000000 	.word	0xd0000000

10002a68 <__aeabi_double_init>:
10002a68:	2313      	movs	r3, #19
10002a6a:	b570      	push	{r4, r5, r6, lr}
10002a6c:	781d      	ldrb	r5, [r3, #0]
10002a6e:	2d01      	cmp	r5, #1
10002a70:	d015      	beq.n	10002a9e <__aeabi_double_init+0x36>
10002a72:	dd10      	ble.n	10002a96 <__aeabi_double_init+0x2e>
10002a74:	481d      	ldr	r0, [pc, #116]	; (10002aec <__aeabi_double_init+0x84>)
10002a76:	f7ff ffa7 	bl	100029c8 <rom_data_lookup>
10002a7a:	4c1d      	ldr	r4, [pc, #116]	; (10002af0 <__aeabi_double_init+0x88>)
10002a7c:	0001      	movs	r1, r0
10002a7e:	2280      	movs	r2, #128	; 0x80
10002a80:	0020      	movs	r0, r4
10002a82:	f000 f8d3 	bl	10002c2c <__wrap___aeabi_memcpy>
10002a86:	2d02      	cmp	r5, #2
10002a88:	d02d      	beq.n	10002ae6 <__aeabi_double_init+0x7e>
10002a8a:	481a      	ldr	r0, [pc, #104]	; (10002af4 <__aeabi_double_init+0x8c>)
10002a8c:	f7ff ff94 	bl	100029b8 <rom_func_lookup>
10002a90:	4b19      	ldr	r3, [pc, #100]	; (10002af8 <__aeabi_double_init+0x90>)
10002a92:	6018      	str	r0, [r3, #0]
10002a94:	bd70      	pop	{r4, r5, r6, pc}
10002a96:	4b19      	ldr	r3, [pc, #100]	; (10002afc <__aeabi_double_init+0x94>)
10002a98:	4c15      	ldr	r4, [pc, #84]	; (10002af0 <__aeabi_double_init+0x88>)
10002a9a:	64a3      	str	r3, [r4, #72]	; 0x48
10002a9c:	e7f5      	b.n	10002a8a <__aeabi_double_init+0x22>
10002a9e:	4b17      	ldr	r3, [pc, #92]	; (10002afc <__aeabi_double_init+0x94>)
10002aa0:	4c13      	ldr	r4, [pc, #76]	; (10002af0 <__aeabi_double_init+0x88>)
10002aa2:	6023      	str	r3, [r4, #0]
10002aa4:	6063      	str	r3, [r4, #4]
10002aa6:	60a3      	str	r3, [r4, #8]
10002aa8:	60e3      	str	r3, [r4, #12]
10002aaa:	6123      	str	r3, [r4, #16]
10002aac:	6163      	str	r3, [r4, #20]
10002aae:	61a3      	str	r3, [r4, #24]
10002ab0:	61e3      	str	r3, [r4, #28]
10002ab2:	6223      	str	r3, [r4, #32]
10002ab4:	6263      	str	r3, [r4, #36]	; 0x24
10002ab6:	62a3      	str	r3, [r4, #40]	; 0x28
10002ab8:	62e3      	str	r3, [r4, #44]	; 0x2c
10002aba:	6323      	str	r3, [r4, #48]	; 0x30
10002abc:	6363      	str	r3, [r4, #52]	; 0x34
10002abe:	63a3      	str	r3, [r4, #56]	; 0x38
10002ac0:	63e3      	str	r3, [r4, #60]	; 0x3c
10002ac2:	6423      	str	r3, [r4, #64]	; 0x40
10002ac4:	6463      	str	r3, [r4, #68]	; 0x44
10002ac6:	64a3      	str	r3, [r4, #72]	; 0x48
10002ac8:	64e3      	str	r3, [r4, #76]	; 0x4c
10002aca:	6523      	str	r3, [r4, #80]	; 0x50
10002acc:	6563      	str	r3, [r4, #84]	; 0x54
10002ace:	65a3      	str	r3, [r4, #88]	; 0x58
10002ad0:	65e3      	str	r3, [r4, #92]	; 0x5c
10002ad2:	6623      	str	r3, [r4, #96]	; 0x60
10002ad4:	6663      	str	r3, [r4, #100]	; 0x64
10002ad6:	66a3      	str	r3, [r4, #104]	; 0x68
10002ad8:	66e3      	str	r3, [r4, #108]	; 0x6c
10002ada:	6723      	str	r3, [r4, #112]	; 0x70
10002adc:	6763      	str	r3, [r4, #116]	; 0x74
10002ade:	67a3      	str	r3, [r4, #120]	; 0x78
10002ae0:	67e3      	str	r3, [r4, #124]	; 0x7c
10002ae2:	64a3      	str	r3, [r4, #72]	; 0x48
10002ae4:	e7d1      	b.n	10002a8a <__aeabi_double_init+0x22>
10002ae6:	4b05      	ldr	r3, [pc, #20]	; (10002afc <__aeabi_double_init+0x94>)
10002ae8:	64a3      	str	r3, [r4, #72]	; 0x48
10002aea:	e7ce      	b.n	10002a8a <__aeabi_double_init+0x22>
10002aec:	00004453 	.word	0x00004453
10002af0:	20000cf0 	.word	0x20000cf0
10002af4:	0000334c 	.word	0x0000334c
10002af8:	200012e8 	.word	0x200012e8
10002afc:	10002b01 	.word	0x10002b01

10002b00 <double_table_shim_on_use_helper>:
10002b00:	b507      	push	{r0, r1, r2, lr}
10002b02:	4660      	mov	r0, ip
10002b04:	8801      	ldrh	r1, [r0, #0]
10002b06:	0a0a      	lsrs	r2, r1, #8
10002b08:	3002      	adds	r0, #2
10002b0a:	2adf      	cmp	r2, #223	; 0xdf
10002b0c:	d1fa      	bne.n	10002b04 <double_table_shim_on_use_helper+0x4>
10002b0e:	b2c9      	uxtb	r1, r1
10002b10:	0882      	lsrs	r2, r0, #2
10002b12:	d304      	bcc.n	10002b1e <double_table_shim_on_use_helper+0x1e>
10002b14:	8802      	ldrh	r2, [r0, #0]
10002b16:	8840      	ldrh	r0, [r0, #2]
10002b18:	0400      	lsls	r0, r0, #16
10002b1a:	4310      	orrs	r0, r2
10002b1c:	e000      	b.n	10002b20 <double_table_shim_on_use_helper+0x20>
10002b1e:	6800      	ldr	r0, [r0, #0]
10002b20:	4a01      	ldr	r2, [pc, #4]	; (10002b28 <double_table_shim_on_use_helper+0x28>)
10002b22:	5050      	str	r0, [r2, r1]
10002b24:	9003      	str	r0, [sp, #12]
10002b26:	bd07      	pop	{r0, r1, r2, pc}
10002b28:	20000cf0 	.word	0x20000cf0

10002b2c <__wrap___aeabi_lmul>:
10002b2c:	4351      	muls	r1, r2
10002b2e:	4343      	muls	r3, r0
10002b30:	18c9      	adds	r1, r1, r3
10002b32:	468c      	mov	ip, r1
10002b34:	0c11      	lsrs	r1, r2, #16
10002b36:	b283      	uxth	r3, r0
10002b38:	434b      	muls	r3, r1
10002b3a:	b410      	push	{r4}
10002b3c:	0c04      	lsrs	r4, r0, #16
10002b3e:	4361      	muls	r1, r4
10002b40:	b292      	uxth	r2, r2
10002b42:	b280      	uxth	r0, r0
10002b44:	4350      	muls	r0, r2
10002b46:	4362      	muls	r2, r4
10002b48:	041c      	lsls	r4, r3, #16
10002b4a:	0c1b      	lsrs	r3, r3, #16
10002b4c:	1900      	adds	r0, r0, r4
10002b4e:	bc10      	pop	{r4}
10002b50:	4159      	adcs	r1, r3
10002b52:	0413      	lsls	r3, r2, #16
10002b54:	0c12      	lsrs	r2, r2, #16
10002b56:	18c0      	adds	r0, r0, r3
10002b58:	4151      	adcs	r1, r2
10002b5a:	4461      	add	r1, ip
10002b5c:	4770      	bx	lr
	...

10002b60 <__aeabi_float_init>:
10002b60:	2313      	movs	r3, #19
10002b62:	b510      	push	{r4, lr}
10002b64:	4812      	ldr	r0, [pc, #72]	; (10002bb0 <__aeabi_float_init+0x50>)
10002b66:	781c      	ldrb	r4, [r3, #0]
10002b68:	f7ff ff2e 	bl	100029c8 <rom_data_lookup>
10002b6c:	0001      	movs	r1, r0
10002b6e:	2c01      	cmp	r4, #1
10002b70:	d00a      	beq.n	10002b88 <__aeabi_float_init+0x28>
10002b72:	dd03      	ble.n	10002b7c <__aeabi_float_init+0x1c>
10002b74:	2280      	movs	r2, #128	; 0x80
10002b76:	480f      	ldr	r0, [pc, #60]	; (10002bb4 <__aeabi_float_init+0x54>)
10002b78:	f000 f858 	bl	10002c2c <__wrap___aeabi_memcpy>
10002b7c:	480e      	ldr	r0, [pc, #56]	; (10002bb8 <__aeabi_float_init+0x58>)
10002b7e:	f7ff ff1b 	bl	100029b8 <rom_func_lookup>
10002b82:	4b0e      	ldr	r3, [pc, #56]	; (10002bbc <__aeabi_float_init+0x5c>)
10002b84:	6018      	str	r0, [r3, #0]
10002b86:	bd10      	pop	{r4, pc}
10002b88:	4c0a      	ldr	r4, [pc, #40]	; (10002bb4 <__aeabi_float_init+0x54>)
10002b8a:	2254      	movs	r2, #84	; 0x54
10002b8c:	0020      	movs	r0, r4
10002b8e:	f000 f84d 	bl	10002c2c <__wrap___aeabi_memcpy>
10002b92:	4b0b      	ldr	r3, [pc, #44]	; (10002bc0 <__aeabi_float_init+0x60>)
10002b94:	6563      	str	r3, [r4, #84]	; 0x54
10002b96:	65a3      	str	r3, [r4, #88]	; 0x58
10002b98:	65e3      	str	r3, [r4, #92]	; 0x5c
10002b9a:	6623      	str	r3, [r4, #96]	; 0x60
10002b9c:	6663      	str	r3, [r4, #100]	; 0x64
10002b9e:	66a3      	str	r3, [r4, #104]	; 0x68
10002ba0:	66e3      	str	r3, [r4, #108]	; 0x6c
10002ba2:	6723      	str	r3, [r4, #112]	; 0x70
10002ba4:	6763      	str	r3, [r4, #116]	; 0x74
10002ba6:	67a3      	str	r3, [r4, #120]	; 0x78
10002ba8:	67e3      	str	r3, [r4, #124]	; 0x7c
10002baa:	6223      	str	r3, [r4, #32]
10002bac:	61e3      	str	r3, [r4, #28]
10002bae:	e7e5      	b.n	10002b7c <__aeabi_float_init+0x1c>
10002bb0:	00004653 	.word	0x00004653
10002bb4:	20000df0 	.word	0x20000df0
10002bb8:	0000334c 	.word	0x0000334c
10002bbc:	200012e8 	.word	0x200012e8
10002bc0:	10002bc5 	.word	0x10002bc5

10002bc4 <float_table_shim_on_use_helper>:
10002bc4:	b507      	push	{r0, r1, r2, lr}
10002bc6:	4660      	mov	r0, ip
10002bc8:	8801      	ldrh	r1, [r0, #0]
10002bca:	0a0a      	lsrs	r2, r1, #8
10002bcc:	3002      	adds	r0, #2
10002bce:	2adf      	cmp	r2, #223	; 0xdf
10002bd0:	d1fa      	bne.n	10002bc8 <float_table_shim_on_use_helper+0x4>
10002bd2:	b2c9      	uxtb	r1, r1
10002bd4:	0882      	lsrs	r2, r0, #2
10002bd6:	d304      	bcc.n	10002be2 <float_table_shim_on_use_helper+0x1e>
10002bd8:	8802      	ldrh	r2, [r0, #0]
10002bda:	8840      	ldrh	r0, [r0, #2]
10002bdc:	0400      	lsls	r0, r0, #16
10002bde:	4310      	orrs	r0, r2
10002be0:	e000      	b.n	10002be4 <float_table_shim_on_use_helper+0x20>
10002be2:	6800      	ldr	r0, [r0, #0]
10002be4:	4a01      	ldr	r2, [pc, #4]	; (10002bec <float_table_shim_on_use_helper+0x28>)
10002be6:	5050      	str	r0, [r2, r1]
10002be8:	9003      	str	r0, [sp, #12]
10002bea:	bd07      	pop	{r0, r1, r2, pc}
10002bec:	20000df0 	.word	0x20000df0

10002bf0 <__wrap_malloc>:
10002bf0:	b510      	push	{r4, lr}
10002bf2:	0004      	movs	r4, r0
10002bf4:	f000 f94c 	bl	10002e90 <malloc>
10002bf8:	2800      	cmp	r0, #0
10002bfa:	d004      	beq.n	10002c06 <__wrap_malloc+0x16>
10002bfc:	4b03      	ldr	r3, [pc, #12]	; (10002c0c <__wrap_malloc+0x1c>)
10002bfe:	1904      	adds	r4, r0, r4
10002c00:	429c      	cmp	r4, r3
10002c02:	d800      	bhi.n	10002c06 <__wrap_malloc+0x16>
10002c04:	bd10      	pop	{r4, pc}
10002c06:	4802      	ldr	r0, [pc, #8]	; (10002c10 <__wrap_malloc+0x20>)
10002c08:	f7ff fcc6 	bl	10002598 <panic>
10002c0c:	20040000 	.word	0x20040000
10002c10:	10003904 	.word	0x10003904

10002c14 <__wrap_free>:
10002c14:	b510      	push	{r4, lr}
10002c16:	f000 f945 	bl	10002ea4 <free>
10002c1a:	bd10      	pop	{r4, pc}

10002c1c <__aeabi_mem_init>:
10002c1c:	4801      	ldr	r0, [pc, #4]	; (10002c24 <__aeabi_mem_init+0x8>)
10002c1e:	2104      	movs	r1, #4
10002c20:	4b01      	ldr	r3, [pc, #4]	; (10002c28 <__aeabi_mem_init+0xc>)
10002c22:	4718      	bx	r3
10002c24:	20000350 	.word	0x20000350
10002c28:	100029d9 	.word	0x100029d9

10002c2c <__wrap___aeabi_memcpy>:
10002c2c:	4b01      	ldr	r3, [pc, #4]	; (10002c34 <__wrap___aeabi_memcpy+0x8>)
10002c2e:	685b      	ldr	r3, [r3, #4]
10002c30:	4718      	bx	r3
10002c32:	0000      	.short	0x0000
10002c34:	20000350 	.word	0x20000350

10002c38 <stdio_out_chars_crlf>:
10002c38:	b5f0      	push	{r4, r5, r6, r7, lr}
10002c3a:	46c6      	mov	lr, r8
10002c3c:	b500      	push	{lr}
10002c3e:	7c43      	ldrb	r3, [r0, #17]
10002c40:	0007      	movs	r7, r0
10002c42:	000d      	movs	r5, r1
10002c44:	0016      	movs	r6, r2
10002c46:	2b00      	cmp	r3, #0
10002c48:	d038      	beq.n	10002cbc <stdio_out_chars_crlf+0x84>
10002c4a:	2a00      	cmp	r2, #0
10002c4c:	dd2e      	ble.n	10002cac <stdio_out_chars_crlf+0x74>
10002c4e:	2100      	movs	r1, #0
10002c50:	1e6a      	subs	r2, r5, #1
10002c52:	4690      	mov	r8, r2
10002c54:	5c6a      	ldrb	r2, [r5, r1]
10002c56:	7c03      	ldrb	r3, [r0, #16]
10002c58:	1c4c      	adds	r4, r1, #1
10002c5a:	2000      	movs	r0, #0
10002c5c:	2a0a      	cmp	r2, #10
10002c5e:	d00c      	beq.n	10002c7a <stdio_out_chars_crlf+0x42>
10002c60:	42a6      	cmp	r6, r4
10002c62:	d016      	beq.n	10002c92 <stdio_out_chars_crlf+0x5a>
10002c64:	4643      	mov	r3, r8
10002c66:	5d1b      	ldrb	r3, [r3, r4]
10002c68:	0021      	movs	r1, r4
10002c6a:	3b0d      	subs	r3, #13
10002c6c:	425a      	negs	r2, r3
10002c6e:	4153      	adcs	r3, r2
10002c70:	5c6a      	ldrb	r2, [r5, r1]
10002c72:	b2db      	uxtb	r3, r3
10002c74:	1c4c      	adds	r4, r1, #1
10002c76:	2a0a      	cmp	r2, #10
10002c78:	d1f2      	bne.n	10002c60 <stdio_out_chars_crlf+0x28>
10002c7a:	2b00      	cmp	r3, #0
10002c7c:	d1f0      	bne.n	10002c60 <stdio_out_chars_crlf+0x28>
10002c7e:	4281      	cmp	r1, r0
10002c80:	dc17      	bgt.n	10002cb2 <stdio_out_chars_crlf+0x7a>
10002c82:	2102      	movs	r1, #2
10002c84:	4810      	ldr	r0, [pc, #64]	; (10002cc8 <stdio_out_chars_crlf+0x90>)
10002c86:	683b      	ldr	r3, [r7, #0]
10002c88:	4798      	blx	r3
10002c8a:	42a6      	cmp	r6, r4
10002c8c:	d007      	beq.n	10002c9e <stdio_out_chars_crlf+0x66>
10002c8e:	0020      	movs	r0, r4
10002c90:	e7e8      	b.n	10002c64 <stdio_out_chars_crlf+0x2c>
10002c92:	4286      	cmp	r6, r0
10002c94:	dd03      	ble.n	10002c9e <stdio_out_chars_crlf+0x66>
10002c96:	1a31      	subs	r1, r6, r0
10002c98:	683b      	ldr	r3, [r7, #0]
10002c9a:	1828      	adds	r0, r5, r0
10002c9c:	4798      	blx	r3
10002c9e:	19ad      	adds	r5, r5, r6
10002ca0:	3d01      	subs	r5, #1
10002ca2:	782b      	ldrb	r3, [r5, #0]
10002ca4:	3b0d      	subs	r3, #13
10002ca6:	425a      	negs	r2, r3
10002ca8:	4153      	adcs	r3, r2
10002caa:	743b      	strb	r3, [r7, #16]
10002cac:	bc80      	pop	{r7}
10002cae:	46b8      	mov	r8, r7
10002cb0:	bdf0      	pop	{r4, r5, r6, r7, pc}
10002cb2:	1a09      	subs	r1, r1, r0
10002cb4:	683b      	ldr	r3, [r7, #0]
10002cb6:	1828      	adds	r0, r5, r0
10002cb8:	4798      	blx	r3
10002cba:	e7e2      	b.n	10002c82 <stdio_out_chars_crlf+0x4a>
10002cbc:	6803      	ldr	r3, [r0, #0]
10002cbe:	0011      	movs	r1, r2
10002cc0:	0028      	movs	r0, r5
10002cc2:	4798      	blx	r3
10002cc4:	e7f2      	b.n	10002cac <stdio_out_chars_crlf+0x74>
10002cc6:	46c0      	nop			; (mov r8, r8)
10002cc8:	10003978 	.word	0x10003978

10002ccc <__wrap_putchar>:
10002ccc:	b5f0      	push	{r4, r5, r6, r7, lr}
10002cce:	46ce      	mov	lr, r9
10002cd0:	4647      	mov	r7, r8
10002cd2:	b580      	push	{r7, lr}
10002cd4:	b083      	sub	sp, #12
10002cd6:	466b      	mov	r3, sp
10002cd8:	1cde      	adds	r6, r3, #3
10002cda:	23d0      	movs	r3, #208	; 0xd0
10002cdc:	7030      	strb	r0, [r6, #0]
10002cde:	061b      	lsls	r3, r3, #24
10002ce0:	681c      	ldr	r4, [r3, #0]
10002ce2:	4b20      	ldr	r3, [pc, #128]	; (10002d64 <__wrap_putchar+0x98>)
10002ce4:	4680      	mov	r8, r0
10002ce6:	a901      	add	r1, sp, #4
10002ce8:	0018      	movs	r0, r3
10002cea:	4699      	mov	r9, r3
10002cec:	f000 fda8 	bl	10003840 <__mutex_try_enter_veneer>
10002cf0:	1e07      	subs	r7, r0, #0
10002cf2:	d020      	beq.n	10002d36 <__wrap_putchar+0x6a>
10002cf4:	4b1c      	ldr	r3, [pc, #112]	; (10002d68 <__wrap_putchar+0x9c>)
10002cf6:	681c      	ldr	r4, [r3, #0]
10002cf8:	2c00      	cmp	r4, #0
10002cfa:	d029      	beq.n	10002d50 <__wrap_putchar+0x84>
10002cfc:	4d1b      	ldr	r5, [pc, #108]	; (10002d6c <__wrap_putchar+0xa0>)
10002cfe:	e002      	b.n	10002d06 <__wrap_putchar+0x3a>
10002d00:	68e4      	ldr	r4, [r4, #12]
10002d02:	2c00      	cmp	r4, #0
10002d04:	d00f      	beq.n	10002d26 <__wrap_putchar+0x5a>
10002d06:	6823      	ldr	r3, [r4, #0]
10002d08:	2b00      	cmp	r3, #0
10002d0a:	d0f9      	beq.n	10002d00 <__wrap_putchar+0x34>
10002d0c:	682b      	ldr	r3, [r5, #0]
10002d0e:	2b00      	cmp	r3, #0
10002d10:	d001      	beq.n	10002d16 <__wrap_putchar+0x4a>
10002d12:	42a3      	cmp	r3, r4
10002d14:	d1f4      	bne.n	10002d00 <__wrap_putchar+0x34>
10002d16:	0020      	movs	r0, r4
10002d18:	2201      	movs	r2, #1
10002d1a:	0031      	movs	r1, r6
10002d1c:	f7ff ff8c 	bl	10002c38 <stdio_out_chars_crlf>
10002d20:	68e4      	ldr	r4, [r4, #12]
10002d22:	2c00      	cmp	r4, #0
10002d24:	d1ef      	bne.n	10002d06 <__wrap_putchar+0x3a>
10002d26:	2f00      	cmp	r7, #0
10002d28:	d112      	bne.n	10002d50 <__wrap_putchar+0x84>
10002d2a:	4640      	mov	r0, r8
10002d2c:	b003      	add	sp, #12
10002d2e:	bcc0      	pop	{r6, r7}
10002d30:	46b9      	mov	r9, r7
10002d32:	46b0      	mov	r8, r6
10002d34:	bdf0      	pop	{r4, r5, r6, r7, pc}
10002d36:	9b01      	ldr	r3, [sp, #4]
10002d38:	b264      	sxtb	r4, r4
10002d3a:	429c      	cmp	r4, r3
10002d3c:	d00c      	beq.n	10002d58 <__wrap_putchar+0x8c>
10002d3e:	4648      	mov	r0, r9
10002d40:	f000 fd8e 	bl	10003860 <__mutex_enter_blocking_veneer>
10002d44:	4b08      	ldr	r3, [pc, #32]	; (10002d68 <__wrap_putchar+0x9c>)
10002d46:	681c      	ldr	r4, [r3, #0]
10002d48:	2c00      	cmp	r4, #0
10002d4a:	d001      	beq.n	10002d50 <__wrap_putchar+0x84>
10002d4c:	2701      	movs	r7, #1
10002d4e:	e7d5      	b.n	10002cfc <__wrap_putchar+0x30>
10002d50:	4648      	mov	r0, r9
10002d52:	f000 fd5d 	bl	10003810 <__mutex_exit_veneer>
10002d56:	e7e8      	b.n	10002d2a <__wrap_putchar+0x5e>
10002d58:	4b03      	ldr	r3, [pc, #12]	; (10002d68 <__wrap_putchar+0x9c>)
10002d5a:	681c      	ldr	r4, [r3, #0]
10002d5c:	2c00      	cmp	r4, #0
10002d5e:	d1cd      	bne.n	10002cfc <__wrap_putchar+0x30>
10002d60:	e7e3      	b.n	10002d2a <__wrap_putchar+0x5e>
10002d62:	46c0      	nop			; (mov r8, r8)
10002d64:	20000ba4 	.word	0x20000ba4
10002d68:	20001088 	.word	0x20001088
10002d6c:	20001090 	.word	0x20001090

10002d70 <__wrap_puts>:
10002d70:	b5f0      	push	{r4, r5, r6, r7, lr}
10002d72:	46de      	mov	lr, fp
10002d74:	4645      	mov	r5, r8
10002d76:	464e      	mov	r6, r9
10002d78:	4657      	mov	r7, sl
10002d7a:	b5e0      	push	{r5, r6, r7, lr}
10002d7c:	b083      	sub	sp, #12
10002d7e:	0006      	movs	r6, r0
10002d80:	f000 fb76 	bl	10003470 <strlen>
10002d84:	23d0      	movs	r3, #208	; 0xd0
10002d86:	061b      	lsls	r3, r3, #24
10002d88:	681c      	ldr	r4, [r3, #0]
10002d8a:	4b30      	ldr	r3, [pc, #192]	; (10002e4c <__wrap_puts+0xdc>)
10002d8c:	0005      	movs	r5, r0
10002d8e:	a901      	add	r1, sp, #4
10002d90:	0018      	movs	r0, r3
10002d92:	469b      	mov	fp, r3
10002d94:	f000 fd54 	bl	10003840 <__mutex_try_enter_veneer>
10002d98:	4680      	mov	r8, r0
10002d9a:	2800      	cmp	r0, #0
10002d9c:	d03d      	beq.n	10002e1a <__wrap_puts+0xaa>
10002d9e:	4b2c      	ldr	r3, [pc, #176]	; (10002e50 <__wrap_puts+0xe0>)
10002da0:	681c      	ldr	r4, [r3, #0]
10002da2:	469a      	mov	sl, r3
10002da4:	2c00      	cmp	r4, #0
10002da6:	d047      	beq.n	10002e38 <__wrap_puts+0xc8>
10002da8:	230a      	movs	r3, #10
10002daa:	4f2a      	ldr	r7, [pc, #168]	; (10002e54 <__wrap_puts+0xe4>)
10002dac:	4699      	mov	r9, r3
10002dae:	e002      	b.n	10002db6 <__wrap_puts+0x46>
10002db0:	68e4      	ldr	r4, [r4, #12]
10002db2:	2c00      	cmp	r4, #0
10002db4:	d017      	beq.n	10002de6 <__wrap_puts+0x76>
10002db6:	6823      	ldr	r3, [r4, #0]
10002db8:	2b00      	cmp	r3, #0
10002dba:	d0f9      	beq.n	10002db0 <__wrap_puts+0x40>
10002dbc:	683b      	ldr	r3, [r7, #0]
10002dbe:	2b00      	cmp	r3, #0
10002dc0:	d001      	beq.n	10002dc6 <__wrap_puts+0x56>
10002dc2:	42a3      	cmp	r3, r4
10002dc4:	d1f4      	bne.n	10002db0 <__wrap_puts+0x40>
10002dc6:	0020      	movs	r0, r4
10002dc8:	002a      	movs	r2, r5
10002dca:	0031      	movs	r1, r6
10002dcc:	f7ff ff34 	bl	10002c38 <stdio_out_chars_crlf>
10002dd0:	466b      	mov	r3, sp
10002dd2:	464a      	mov	r2, r9
10002dd4:	0020      	movs	r0, r4
10002dd6:	711a      	strb	r2, [r3, #4]
10002dd8:	a901      	add	r1, sp, #4
10002dda:	2201      	movs	r2, #1
10002ddc:	f7ff ff2c 	bl	10002c38 <stdio_out_chars_crlf>
10002de0:	68e4      	ldr	r4, [r4, #12]
10002de2:	2c00      	cmp	r4, #0
10002de4:	d1e7      	bne.n	10002db6 <__wrap_puts+0x46>
10002de6:	4643      	mov	r3, r8
10002de8:	2b00      	cmp	r3, #0
10002dea:	d125      	bne.n	10002e38 <__wrap_puts+0xc8>
10002dec:	4653      	mov	r3, sl
10002dee:	681c      	ldr	r4, [r3, #0]
10002df0:	2c00      	cmp	r4, #0
10002df2:	d006      	beq.n	10002e02 <__wrap_puts+0x92>
10002df4:	6863      	ldr	r3, [r4, #4]
10002df6:	2b00      	cmp	r3, #0
10002df8:	d00b      	beq.n	10002e12 <__wrap_puts+0xa2>
10002dfa:	4798      	blx	r3
10002dfc:	68e4      	ldr	r4, [r4, #12]
10002dfe:	2c00      	cmp	r4, #0
10002e00:	d1f8      	bne.n	10002df4 <__wrap_puts+0x84>
10002e02:	0028      	movs	r0, r5
10002e04:	b003      	add	sp, #12
10002e06:	bcf0      	pop	{r4, r5, r6, r7}
10002e08:	46bb      	mov	fp, r7
10002e0a:	46b2      	mov	sl, r6
10002e0c:	46a9      	mov	r9, r5
10002e0e:	46a0      	mov	r8, r4
10002e10:	bdf0      	pop	{r4, r5, r6, r7, pc}
10002e12:	68e4      	ldr	r4, [r4, #12]
10002e14:	2c00      	cmp	r4, #0
10002e16:	d1ed      	bne.n	10002df4 <__wrap_puts+0x84>
10002e18:	e7f3      	b.n	10002e02 <__wrap_puts+0x92>
10002e1a:	9b01      	ldr	r3, [sp, #4]
10002e1c:	b264      	sxtb	r4, r4
10002e1e:	429c      	cmp	r4, r3
10002e20:	d00e      	beq.n	10002e40 <__wrap_puts+0xd0>
10002e22:	4658      	mov	r0, fp
10002e24:	f000 fd1c 	bl	10003860 <__mutex_enter_blocking_veneer>
10002e28:	4b09      	ldr	r3, [pc, #36]	; (10002e50 <__wrap_puts+0xe0>)
10002e2a:	681c      	ldr	r4, [r3, #0]
10002e2c:	469a      	mov	sl, r3
10002e2e:	2c00      	cmp	r4, #0
10002e30:	d002      	beq.n	10002e38 <__wrap_puts+0xc8>
10002e32:	2301      	movs	r3, #1
10002e34:	4698      	mov	r8, r3
10002e36:	e7b7      	b.n	10002da8 <__wrap_puts+0x38>
10002e38:	4658      	mov	r0, fp
10002e3a:	f000 fce9 	bl	10003810 <__mutex_exit_veneer>
10002e3e:	e7d5      	b.n	10002dec <__wrap_puts+0x7c>
10002e40:	4b03      	ldr	r3, [pc, #12]	; (10002e50 <__wrap_puts+0xe0>)
10002e42:	681c      	ldr	r4, [r3, #0]
10002e44:	469a      	mov	sl, r3
10002e46:	2c00      	cmp	r4, #0
10002e48:	d1ae      	bne.n	10002da8 <__wrap_puts+0x38>
10002e4a:	e7da      	b.n	10002e02 <__wrap_puts+0x92>
10002e4c:	20000ba4 	.word	0x20000ba4
10002e50:	20001088 	.word	0x20001088
10002e54:	20001090 	.word	0x20001090

10002e58 <atexit>:
10002e58:	b510      	push	{r4, lr}
10002e5a:	0001      	movs	r1, r0
10002e5c:	2300      	movs	r3, #0
10002e5e:	2200      	movs	r2, #0
10002e60:	2000      	movs	r0, #0
10002e62:	f000 fb33 	bl	100034cc <__register_exitproc>
10002e66:	bd10      	pop	{r4, pc}

10002e68 <__libc_fini_array>:
10002e68:	b570      	push	{r4, r5, r6, lr}
10002e6a:	4c07      	ldr	r4, [pc, #28]	; (10002e88 <__libc_fini_array+0x20>)
10002e6c:	4d07      	ldr	r5, [pc, #28]	; (10002e8c <__libc_fini_array+0x24>)
10002e6e:	1b64      	subs	r4, r4, r5
10002e70:	10a4      	asrs	r4, r4, #2
10002e72:	d005      	beq.n	10002e80 <__libc_fini_array+0x18>
10002e74:	3c01      	subs	r4, #1
10002e76:	00a3      	lsls	r3, r4, #2
10002e78:	58eb      	ldr	r3, [r5, r3]
10002e7a:	4798      	blx	r3
10002e7c:	2c00      	cmp	r4, #0
10002e7e:	d1f9      	bne.n	10002e74 <__libc_fini_array+0xc>
10002e80:	f000 fcc2 	bl	10003808 <_fini>
10002e84:	bd70      	pop	{r4, r5, r6, pc}
10002e86:	46c0      	nop			; (mov r8, r8)
10002e88:	20000bc4 	.word	0x20000bc4
10002e8c:	20000bc4 	.word	0x20000bc4

10002e90 <malloc>:
10002e90:	b510      	push	{r4, lr}
10002e92:	4b03      	ldr	r3, [pc, #12]	; (10002ea0 <malloc+0x10>)
10002e94:	0001      	movs	r1, r0
10002e96:	6818      	ldr	r0, [r3, #0]
10002e98:	f000 f80e 	bl	10002eb8 <_malloc_r>
10002e9c:	bd10      	pop	{r4, pc}
10002e9e:	46c0      	nop			; (mov r8, r8)
10002ea0:	20000360 	.word	0x20000360

10002ea4 <free>:
10002ea4:	b510      	push	{r4, lr}
10002ea6:	4b03      	ldr	r3, [pc, #12]	; (10002eb4 <free+0x10>)
10002ea8:	0001      	movs	r1, r0
10002eaa:	6818      	ldr	r0, [r3, #0]
10002eac:	f000 fbbe 	bl	1000362c <_free_r>
10002eb0:	bd10      	pop	{r4, pc}
10002eb2:	46c0      	nop			; (mov r8, r8)
10002eb4:	20000360 	.word	0x20000360

10002eb8 <_malloc_r>:
10002eb8:	b5f0      	push	{r4, r5, r6, r7, lr}
10002eba:	464e      	mov	r6, r9
10002ebc:	4645      	mov	r5, r8
10002ebe:	46de      	mov	lr, fp
10002ec0:	4657      	mov	r7, sl
10002ec2:	b5e0      	push	{r5, r6, r7, lr}
10002ec4:	000d      	movs	r5, r1
10002ec6:	350b      	adds	r5, #11
10002ec8:	0006      	movs	r6, r0
10002eca:	b083      	sub	sp, #12
10002ecc:	2d16      	cmp	r5, #22
10002ece:	d821      	bhi.n	10002f14 <_malloc_r+0x5c>
10002ed0:	2910      	cmp	r1, #16
10002ed2:	d900      	bls.n	10002ed6 <_malloc_r+0x1e>
10002ed4:	e09f      	b.n	10003016 <_malloc_r+0x15e>
10002ed6:	f000 faa9 	bl	1000342c <__malloc_lock>
10002eda:	2510      	movs	r5, #16
10002edc:	2318      	movs	r3, #24
10002ede:	2102      	movs	r1, #2
10002ee0:	4fc7      	ldr	r7, [pc, #796]	; (10003200 <_malloc_r+0x348>)
10002ee2:	18fb      	adds	r3, r7, r3
10002ee4:	001a      	movs	r2, r3
10002ee6:	685c      	ldr	r4, [r3, #4]
10002ee8:	3a08      	subs	r2, #8
10002eea:	4294      	cmp	r4, r2
10002eec:	d100      	bne.n	10002ef0 <_malloc_r+0x38>
10002eee:	e0a2      	b.n	10003036 <_malloc_r+0x17e>
10002ef0:	2203      	movs	r2, #3
10002ef2:	6863      	ldr	r3, [r4, #4]
10002ef4:	4393      	bics	r3, r2
10002ef6:	68e2      	ldr	r2, [r4, #12]
10002ef8:	68a1      	ldr	r1, [r4, #8]
10002efa:	60ca      	str	r2, [r1, #12]
10002efc:	6091      	str	r1, [r2, #8]
10002efe:	2101      	movs	r1, #1
10002f00:	18e3      	adds	r3, r4, r3
10002f02:	685a      	ldr	r2, [r3, #4]
10002f04:	0030      	movs	r0, r6
10002f06:	430a      	orrs	r2, r1
10002f08:	605a      	str	r2, [r3, #4]
10002f0a:	f000 fa97 	bl	1000343c <__malloc_unlock>
10002f0e:	0020      	movs	r0, r4
10002f10:	3008      	adds	r0, #8
10002f12:	e083      	b.n	1000301c <_malloc_r+0x164>
10002f14:	2307      	movs	r3, #7
10002f16:	439d      	bics	r5, r3
10002f18:	d47d      	bmi.n	10003016 <_malloc_r+0x15e>
10002f1a:	42a9      	cmp	r1, r5
10002f1c:	d87b      	bhi.n	10003016 <_malloc_r+0x15e>
10002f1e:	f000 fa85 	bl	1000342c <__malloc_lock>
10002f22:	23fc      	movs	r3, #252	; 0xfc
10002f24:	005b      	lsls	r3, r3, #1
10002f26:	429d      	cmp	r5, r3
10002f28:	d200      	bcs.n	10002f2c <_malloc_r+0x74>
10002f2a:	e1a2      	b.n	10003272 <_malloc_r+0x3ba>
10002f2c:	0a69      	lsrs	r1, r5, #9
10002f2e:	d100      	bne.n	10002f32 <_malloc_r+0x7a>
10002f30:	e07b      	b.n	1000302a <_malloc_r+0x172>
10002f32:	2904      	cmp	r1, #4
10002f34:	d900      	bls.n	10002f38 <_malloc_r+0x80>
10002f36:	e157      	b.n	100031e8 <_malloc_r+0x330>
10002f38:	2338      	movs	r3, #56	; 0x38
10002f3a:	4698      	mov	r8, r3
10002f3c:	09a9      	lsrs	r1, r5, #6
10002f3e:	4488      	add	r8, r1
10002f40:	3139      	adds	r1, #57	; 0x39
10002f42:	00c8      	lsls	r0, r1, #3
10002f44:	4fae      	ldr	r7, [pc, #696]	; (10003200 <_malloc_r+0x348>)
10002f46:	1838      	adds	r0, r7, r0
10002f48:	6844      	ldr	r4, [r0, #4]
10002f4a:	3808      	subs	r0, #8
10002f4c:	42a0      	cmp	r0, r4
10002f4e:	d00e      	beq.n	10002f6e <_malloc_r+0xb6>
10002f50:	2303      	movs	r3, #3
10002f52:	469c      	mov	ip, r3
10002f54:	e004      	b.n	10002f60 <_malloc_r+0xa8>
10002f56:	2a00      	cmp	r2, #0
10002f58:	dacd      	bge.n	10002ef6 <_malloc_r+0x3e>
10002f5a:	68e4      	ldr	r4, [r4, #12]
10002f5c:	42a0      	cmp	r0, r4
10002f5e:	d006      	beq.n	10002f6e <_malloc_r+0xb6>
10002f60:	4662      	mov	r2, ip
10002f62:	6863      	ldr	r3, [r4, #4]
10002f64:	4393      	bics	r3, r2
10002f66:	1b5a      	subs	r2, r3, r5
10002f68:	2a0f      	cmp	r2, #15
10002f6a:	ddf4      	ble.n	10002f56 <_malloc_r+0x9e>
10002f6c:	4641      	mov	r1, r8
10002f6e:	003a      	movs	r2, r7
10002f70:	693c      	ldr	r4, [r7, #16]
10002f72:	3208      	adds	r2, #8
10002f74:	4294      	cmp	r4, r2
10002f76:	d068      	beq.n	1000304a <_malloc_r+0x192>
10002f78:	2003      	movs	r0, #3
10002f7a:	6863      	ldr	r3, [r4, #4]
10002f7c:	4383      	bics	r3, r0
10002f7e:	4699      	mov	r9, r3
10002f80:	1b58      	subs	r0, r3, r5
10002f82:	280f      	cmp	r0, #15
10002f84:	dd00      	ble.n	10002f88 <_malloc_r+0xd0>
10002f86:	e178      	b.n	1000327a <_malloc_r+0x3c2>
10002f88:	617a      	str	r2, [r7, #20]
10002f8a:	613a      	str	r2, [r7, #16]
10002f8c:	2800      	cmp	r0, #0
10002f8e:	dab6      	bge.n	10002efe <_malloc_r+0x46>
10002f90:	2280      	movs	r2, #128	; 0x80
10002f92:	0092      	lsls	r2, r2, #2
10002f94:	4293      	cmp	r3, r2
10002f96:	d300      	bcc.n	10002f9a <_malloc_r+0xe2>
10002f98:	e0fe      	b.n	10003198 <_malloc_r+0x2e0>
10002f9a:	0958      	lsrs	r0, r3, #5
10002f9c:	08da      	lsrs	r2, r3, #3
10002f9e:	2301      	movs	r3, #1
10002fa0:	4083      	lsls	r3, r0
10002fa2:	00d2      	lsls	r2, r2, #3
10002fa4:	6878      	ldr	r0, [r7, #4]
10002fa6:	19d2      	adds	r2, r2, r7
10002fa8:	4303      	orrs	r3, r0
10002faa:	6890      	ldr	r0, [r2, #8]
10002fac:	607b      	str	r3, [r7, #4]
10002fae:	60e2      	str	r2, [r4, #12]
10002fb0:	60a0      	str	r0, [r4, #8]
10002fb2:	6094      	str	r4, [r2, #8]
10002fb4:	60c4      	str	r4, [r0, #12]
10002fb6:	2001      	movs	r0, #1
10002fb8:	108a      	asrs	r2, r1, #2
10002fba:	4090      	lsls	r0, r2
10002fbc:	4298      	cmp	r0, r3
10002fbe:	d84a      	bhi.n	10003056 <_malloc_r+0x19e>
10002fc0:	4203      	tst	r3, r0
10002fc2:	d105      	bne.n	10002fd0 <_malloc_r+0x118>
10002fc4:	2203      	movs	r2, #3
10002fc6:	4391      	bics	r1, r2
10002fc8:	0040      	lsls	r0, r0, #1
10002fca:	3104      	adds	r1, #4
10002fcc:	4203      	tst	r3, r0
10002fce:	d0fb      	beq.n	10002fc8 <_malloc_r+0x110>
10002fd0:	2303      	movs	r3, #3
10002fd2:	4698      	mov	r8, r3
10002fd4:	00cb      	lsls	r3, r1, #3
10002fd6:	4699      	mov	r9, r3
10002fd8:	44b9      	add	r9, r7
10002fda:	46cc      	mov	ip, r9
10002fdc:	468a      	mov	sl, r1
10002fde:	4663      	mov	r3, ip
10002fe0:	68db      	ldr	r3, [r3, #12]
10002fe2:	e00b      	b.n	10002ffc <_malloc_r+0x144>
10002fe4:	4644      	mov	r4, r8
10002fe6:	685a      	ldr	r2, [r3, #4]
10002fe8:	469b      	mov	fp, r3
10002fea:	43a2      	bics	r2, r4
10002fec:	68db      	ldr	r3, [r3, #12]
10002fee:	1b54      	subs	r4, r2, r5
10002ff0:	2c0f      	cmp	r4, #15
10002ff2:	dd00      	ble.n	10002ff6 <_malloc_r+0x13e>
10002ff4:	e114      	b.n	10003220 <_malloc_r+0x368>
10002ff6:	2c00      	cmp	r4, #0
10002ff8:	db00      	blt.n	10002ffc <_malloc_r+0x144>
10002ffa:	e12b      	b.n	10003254 <_malloc_r+0x39c>
10002ffc:	459c      	cmp	ip, r3
10002ffe:	d1f1      	bne.n	10002fe4 <_malloc_r+0x12c>
10003000:	2308      	movs	r3, #8
10003002:	469b      	mov	fp, r3
10003004:	3b07      	subs	r3, #7
10003006:	44dc      	add	ip, fp
10003008:	469b      	mov	fp, r3
1000300a:	44da      	add	sl, fp
1000300c:	4643      	mov	r3, r8
1000300e:	4652      	mov	r2, sl
10003010:	4213      	tst	r3, r2
10003012:	d1e4      	bne.n	10002fde <_malloc_r+0x126>
10003014:	e16b      	b.n	100032ee <_malloc_r+0x436>
10003016:	230c      	movs	r3, #12
10003018:	2000      	movs	r0, #0
1000301a:	6033      	str	r3, [r6, #0]
1000301c:	b003      	add	sp, #12
1000301e:	bcf0      	pop	{r4, r5, r6, r7}
10003020:	46bb      	mov	fp, r7
10003022:	46b2      	mov	sl, r6
10003024:	46a9      	mov	r9, r5
10003026:	46a0      	mov	r8, r4
10003028:	bdf0      	pop	{r4, r5, r6, r7, pc}
1000302a:	2080      	movs	r0, #128	; 0x80
1000302c:	233f      	movs	r3, #63	; 0x3f
1000302e:	2140      	movs	r1, #64	; 0x40
10003030:	4698      	mov	r8, r3
10003032:	0080      	lsls	r0, r0, #2
10003034:	e786      	b.n	10002f44 <_malloc_r+0x8c>
10003036:	68dc      	ldr	r4, [r3, #12]
10003038:	3102      	adds	r1, #2
1000303a:	42a3      	cmp	r3, r4
1000303c:	d000      	beq.n	10003040 <_malloc_r+0x188>
1000303e:	e757      	b.n	10002ef0 <_malloc_r+0x38>
10003040:	003a      	movs	r2, r7
10003042:	693c      	ldr	r4, [r7, #16]
10003044:	3208      	adds	r2, #8
10003046:	4294      	cmp	r4, r2
10003048:	d196      	bne.n	10002f78 <_malloc_r+0xc0>
1000304a:	2001      	movs	r0, #1
1000304c:	687b      	ldr	r3, [r7, #4]
1000304e:	108a      	asrs	r2, r1, #2
10003050:	4090      	lsls	r0, r2
10003052:	4298      	cmp	r0, r3
10003054:	d9b4      	bls.n	10002fc0 <_malloc_r+0x108>
10003056:	2203      	movs	r2, #3
10003058:	68bc      	ldr	r4, [r7, #8]
1000305a:	6863      	ldr	r3, [r4, #4]
1000305c:	4393      	bics	r3, r2
1000305e:	469a      	mov	sl, r3
10003060:	429d      	cmp	r5, r3
10003062:	d803      	bhi.n	1000306c <_malloc_r+0x1b4>
10003064:	1b5b      	subs	r3, r3, r5
10003066:	2b0f      	cmp	r3, #15
10003068:	dd00      	ble.n	1000306c <_malloc_r+0x1b4>
1000306a:	e087      	b.n	1000317c <_malloc_r+0x2c4>
1000306c:	0023      	movs	r3, r4
1000306e:	4453      	add	r3, sl
10003070:	4a64      	ldr	r2, [pc, #400]	; (10003204 <_malloc_r+0x34c>)
10003072:	9301      	str	r3, [sp, #4]
10003074:	4b64      	ldr	r3, [pc, #400]	; (10003208 <_malloc_r+0x350>)
10003076:	4690      	mov	r8, r2
10003078:	681b      	ldr	r3, [r3, #0]
1000307a:	6812      	ldr	r2, [r2, #0]
1000307c:	18eb      	adds	r3, r5, r3
1000307e:	3201      	adds	r2, #1
10003080:	d100      	bne.n	10003084 <_malloc_r+0x1cc>
10003082:	e149      	b.n	10003318 <_malloc_r+0x460>
10003084:	4a61      	ldr	r2, [pc, #388]	; (1000320c <_malloc_r+0x354>)
10003086:	4694      	mov	ip, r2
10003088:	4463      	add	r3, ip
1000308a:	0b1b      	lsrs	r3, r3, #12
1000308c:	031b      	lsls	r3, r3, #12
1000308e:	9300      	str	r3, [sp, #0]
10003090:	0030      	movs	r0, r6
10003092:	9900      	ldr	r1, [sp, #0]
10003094:	f000 f9da 	bl	1000344c <_sbrk_r>
10003098:	0003      	movs	r3, r0
1000309a:	4681      	mov	r9, r0
1000309c:	3301      	adds	r3, #1
1000309e:	d100      	bne.n	100030a2 <_malloc_r+0x1ea>
100030a0:	e106      	b.n	100032b0 <_malloc_r+0x3f8>
100030a2:	9b01      	ldr	r3, [sp, #4]
100030a4:	4283      	cmp	r3, r0
100030a6:	d900      	bls.n	100030aa <_malloc_r+0x1f2>
100030a8:	e100      	b.n	100032ac <_malloc_r+0x3f4>
100030aa:	4b59      	ldr	r3, [pc, #356]	; (10003210 <_malloc_r+0x358>)
100030ac:	9800      	ldr	r0, [sp, #0]
100030ae:	469b      	mov	fp, r3
100030b0:	4684      	mov	ip, r0
100030b2:	4659      	mov	r1, fp
100030b4:	681b      	ldr	r3, [r3, #0]
100030b6:	4463      	add	r3, ip
100030b8:	600b      	str	r3, [r1, #0]
100030ba:	9901      	ldr	r1, [sp, #4]
100030bc:	001a      	movs	r2, r3
100030be:	4549      	cmp	r1, r9
100030c0:	d100      	bne.n	100030c4 <_malloc_r+0x20c>
100030c2:	e15f      	b.n	10003384 <_malloc_r+0x4cc>
100030c4:	4643      	mov	r3, r8
100030c6:	681b      	ldr	r3, [r3, #0]
100030c8:	3301      	adds	r3, #1
100030ca:	d100      	bne.n	100030ce <_malloc_r+0x216>
100030cc:	e164      	b.n	10003398 <_malloc_r+0x4e0>
100030ce:	464b      	mov	r3, r9
100030d0:	9901      	ldr	r1, [sp, #4]
100030d2:	1a5b      	subs	r3, r3, r1
100030d4:	189b      	adds	r3, r3, r2
100030d6:	465a      	mov	r2, fp
100030d8:	6013      	str	r3, [r2, #0]
100030da:	2307      	movs	r3, #7
100030dc:	464a      	mov	r2, r9
100030de:	4649      	mov	r1, r9
100030e0:	401a      	ands	r2, r3
100030e2:	9201      	str	r2, [sp, #4]
100030e4:	4219      	tst	r1, r3
100030e6:	d100      	bne.n	100030ea <_malloc_r+0x232>
100030e8:	e120      	b.n	1000332c <_malloc_r+0x474>
100030ea:	1a8b      	subs	r3, r1, r2
100030ec:	2108      	movs	r1, #8
100030ee:	4689      	mov	r9, r1
100030f0:	9900      	ldr	r1, [sp, #0]
100030f2:	4499      	add	r9, r3
100030f4:	4b47      	ldr	r3, [pc, #284]	; (10003214 <_malloc_r+0x35c>)
100030f6:	4449      	add	r1, r9
100030f8:	1a9b      	subs	r3, r3, r2
100030fa:	1a5b      	subs	r3, r3, r1
100030fc:	051b      	lsls	r3, r3, #20
100030fe:	0d1b      	lsrs	r3, r3, #20
10003100:	9100      	str	r1, [sp, #0]
10003102:	0030      	movs	r0, r6
10003104:	0019      	movs	r1, r3
10003106:	4698      	mov	r8, r3
10003108:	f000 f9a0 	bl	1000344c <_sbrk_r>
1000310c:	1c43      	adds	r3, r0, #1
1000310e:	d100      	bne.n	10003112 <_malloc_r+0x25a>
10003110:	e15e      	b.n	100033d0 <_malloc_r+0x518>
10003112:	464b      	mov	r3, r9
10003114:	1ac0      	subs	r0, r0, r3
10003116:	0003      	movs	r3, r0
10003118:	4443      	add	r3, r8
1000311a:	9300      	str	r3, [sp, #0]
1000311c:	465b      	mov	r3, fp
1000311e:	465a      	mov	r2, fp
10003120:	681b      	ldr	r3, [r3, #0]
10003122:	2001      	movs	r0, #1
10003124:	4443      	add	r3, r8
10003126:	6013      	str	r3, [r2, #0]
10003128:	464a      	mov	r2, r9
1000312a:	4649      	mov	r1, r9
1000312c:	60ba      	str	r2, [r7, #8]
1000312e:	9a00      	ldr	r2, [sp, #0]
10003130:	4302      	orrs	r2, r0
10003132:	604a      	str	r2, [r1, #4]
10003134:	42bc      	cmp	r4, r7
10003136:	d100      	bne.n	1000313a <_malloc_r+0x282>
10003138:	e132      	b.n	100033a0 <_malloc_r+0x4e8>
1000313a:	4652      	mov	r2, sl
1000313c:	2a0f      	cmp	r2, #15
1000313e:	d800      	bhi.n	10003142 <_malloc_r+0x28a>
10003140:	e130      	b.n	100033a4 <_malloc_r+0x4ec>
10003142:	2107      	movs	r1, #7
10003144:	3a0c      	subs	r2, #12
10003146:	438a      	bics	r2, r1
10003148:	6861      	ldr	r1, [r4, #4]
1000314a:	4001      	ands	r1, r0
1000314c:	2005      	movs	r0, #5
1000314e:	4311      	orrs	r1, r2
10003150:	6061      	str	r1, [r4, #4]
10003152:	18a1      	adds	r1, r4, r2
10003154:	6048      	str	r0, [r1, #4]
10003156:	6088      	str	r0, [r1, #8]
10003158:	2a0f      	cmp	r2, #15
1000315a:	d900      	bls.n	1000315e <_malloc_r+0x2a6>
1000315c:	e143      	b.n	100033e6 <_malloc_r+0x52e>
1000315e:	464a      	mov	r2, r9
10003160:	464c      	mov	r4, r9
10003162:	6852      	ldr	r2, [r2, #4]
10003164:	492c      	ldr	r1, [pc, #176]	; (10003218 <_malloc_r+0x360>)
10003166:	6808      	ldr	r0, [r1, #0]
10003168:	4298      	cmp	r0, r3
1000316a:	d200      	bcs.n	1000316e <_malloc_r+0x2b6>
1000316c:	600b      	str	r3, [r1, #0]
1000316e:	492b      	ldr	r1, [pc, #172]	; (1000321c <_malloc_r+0x364>)
10003170:	6808      	ldr	r0, [r1, #0]
10003172:	4298      	cmp	r0, r3
10003174:	d300      	bcc.n	10003178 <_malloc_r+0x2c0>
10003176:	e09d      	b.n	100032b4 <_malloc_r+0x3fc>
10003178:	600b      	str	r3, [r1, #0]
1000317a:	e09b      	b.n	100032b4 <_malloc_r+0x3fc>
1000317c:	2201      	movs	r2, #1
1000317e:	0029      	movs	r1, r5
10003180:	4313      	orrs	r3, r2
10003182:	4311      	orrs	r1, r2
10003184:	1965      	adds	r5, r4, r5
10003186:	6061      	str	r1, [r4, #4]
10003188:	0030      	movs	r0, r6
1000318a:	60bd      	str	r5, [r7, #8]
1000318c:	606b      	str	r3, [r5, #4]
1000318e:	f000 f955 	bl	1000343c <__malloc_unlock>
10003192:	0020      	movs	r0, r4
10003194:	3008      	adds	r0, #8
10003196:	e741      	b.n	1000301c <_malloc_r+0x164>
10003198:	0a5a      	lsrs	r2, r3, #9
1000319a:	2a04      	cmp	r2, #4
1000319c:	d800      	bhi.n	100031a0 <_malloc_r+0x2e8>
1000319e:	e07f      	b.n	100032a0 <_malloc_r+0x3e8>
100031a0:	2a14      	cmp	r2, #20
100031a2:	d900      	bls.n	100031a6 <_malloc_r+0x2ee>
100031a4:	e0d2      	b.n	1000334c <_malloc_r+0x494>
100031a6:	0010      	movs	r0, r2
100031a8:	325c      	adds	r2, #92	; 0x5c
100031aa:	305b      	adds	r0, #91	; 0x5b
100031ac:	00d2      	lsls	r2, r2, #3
100031ae:	2308      	movs	r3, #8
100031b0:	425b      	negs	r3, r3
100031b2:	469c      	mov	ip, r3
100031b4:	18ba      	adds	r2, r7, r2
100031b6:	4494      	add	ip, r2
100031b8:	4663      	mov	r3, ip
100031ba:	689a      	ldr	r2, [r3, #8]
100031bc:	2303      	movs	r3, #3
100031be:	4698      	mov	r8, r3
100031c0:	4594      	cmp	ip, r2
100031c2:	d100      	bne.n	100031c6 <_malloc_r+0x30e>
100031c4:	e0ab      	b.n	1000331e <_malloc_r+0x466>
100031c6:	4643      	mov	r3, r8
100031c8:	6850      	ldr	r0, [r2, #4]
100031ca:	4398      	bics	r0, r3
100031cc:	4548      	cmp	r0, r9
100031ce:	d902      	bls.n	100031d6 <_malloc_r+0x31e>
100031d0:	6892      	ldr	r2, [r2, #8]
100031d2:	4594      	cmp	ip, r2
100031d4:	d1f7      	bne.n	100031c6 <_malloc_r+0x30e>
100031d6:	68d3      	ldr	r3, [r2, #12]
100031d8:	469c      	mov	ip, r3
100031da:	687b      	ldr	r3, [r7, #4]
100031dc:	4660      	mov	r0, ip
100031de:	60a2      	str	r2, [r4, #8]
100031e0:	60e0      	str	r0, [r4, #12]
100031e2:	6084      	str	r4, [r0, #8]
100031e4:	60d4      	str	r4, [r2, #12]
100031e6:	e6e6      	b.n	10002fb6 <_malloc_r+0xfe>
100031e8:	2914      	cmp	r1, #20
100031ea:	d970      	bls.n	100032ce <_malloc_r+0x416>
100031ec:	2954      	cmp	r1, #84	; 0x54
100031ee:	d900      	bls.n	100031f2 <_malloc_r+0x33a>
100031f0:	e0b4      	b.n	1000335c <_malloc_r+0x4a4>
100031f2:	236e      	movs	r3, #110	; 0x6e
100031f4:	4698      	mov	r8, r3
100031f6:	0b29      	lsrs	r1, r5, #12
100031f8:	4488      	add	r8, r1
100031fa:	316f      	adds	r1, #111	; 0x6f
100031fc:	00c8      	lsls	r0, r1, #3
100031fe:	e6a1      	b.n	10002f44 <_malloc_r+0x8c>
10003200:	20000790 	.word	0x20000790
10003204:	20000b98 	.word	0x20000b98
10003208:	20000f28 	.word	0x20000f28
1000320c:	0000100f 	.word	0x0000100f
10003210:	20000ef8 	.word	0x20000ef8
10003214:	00001008 	.word	0x00001008
10003218:	20000f20 	.word	0x20000f20
1000321c:	20000f24 	.word	0x20000f24
10003220:	2001      	movs	r0, #1
10003222:	4659      	mov	r1, fp
10003224:	4684      	mov	ip, r0
10003226:	1949      	adds	r1, r1, r5
10003228:	4305      	orrs	r5, r0
1000322a:	4658      	mov	r0, fp
1000322c:	6045      	str	r5, [r0, #4]
1000322e:	6885      	ldr	r5, [r0, #8]
10003230:	4660      	mov	r0, ip
10003232:	60eb      	str	r3, [r5, #12]
10003234:	609d      	str	r5, [r3, #8]
10003236:	465b      	mov	r3, fp
10003238:	6179      	str	r1, [r7, #20]
1000323a:	6139      	str	r1, [r7, #16]
1000323c:	4320      	orrs	r0, r4
1000323e:	3708      	adds	r7, #8
10003240:	6048      	str	r0, [r1, #4]
10003242:	60cf      	str	r7, [r1, #12]
10003244:	0030      	movs	r0, r6
10003246:	608f      	str	r7, [r1, #8]
10003248:	509c      	str	r4, [r3, r2]
1000324a:	f000 f8f7 	bl	1000343c <__malloc_unlock>
1000324e:	4658      	mov	r0, fp
10003250:	3008      	adds	r0, #8
10003252:	e6e3      	b.n	1000301c <_malloc_r+0x164>
10003254:	2001      	movs	r0, #1
10003256:	445a      	add	r2, fp
10003258:	6851      	ldr	r1, [r2, #4]
1000325a:	4301      	orrs	r1, r0
1000325c:	6051      	str	r1, [r2, #4]
1000325e:	465a      	mov	r2, fp
10003260:	6892      	ldr	r2, [r2, #8]
10003262:	0030      	movs	r0, r6
10003264:	60d3      	str	r3, [r2, #12]
10003266:	609a      	str	r2, [r3, #8]
10003268:	f000 f8e8 	bl	1000343c <__malloc_unlock>
1000326c:	4658      	mov	r0, fp
1000326e:	3008      	adds	r0, #8
10003270:	e6d4      	b.n	1000301c <_malloc_r+0x164>
10003272:	002b      	movs	r3, r5
10003274:	08e9      	lsrs	r1, r5, #3
10003276:	3308      	adds	r3, #8
10003278:	e632      	b.n	10002ee0 <_malloc_r+0x28>
1000327a:	2301      	movs	r3, #1
1000327c:	1961      	adds	r1, r4, r5
1000327e:	431d      	orrs	r5, r3
10003280:	6065      	str	r5, [r4, #4]
10003282:	6179      	str	r1, [r7, #20]
10003284:	6139      	str	r1, [r7, #16]
10003286:	60ca      	str	r2, [r1, #12]
10003288:	608a      	str	r2, [r1, #8]
1000328a:	001a      	movs	r2, r3
1000328c:	464b      	mov	r3, r9
1000328e:	4302      	orrs	r2, r0
10003290:	604a      	str	r2, [r1, #4]
10003292:	50e0      	str	r0, [r4, r3]
10003294:	0030      	movs	r0, r6
10003296:	f000 f8d1 	bl	1000343c <__malloc_unlock>
1000329a:	0020      	movs	r0, r4
1000329c:	3008      	adds	r0, #8
1000329e:	e6bd      	b.n	1000301c <_malloc_r+0x164>
100032a0:	099a      	lsrs	r2, r3, #6
100032a2:	0010      	movs	r0, r2
100032a4:	3239      	adds	r2, #57	; 0x39
100032a6:	3038      	adds	r0, #56	; 0x38
100032a8:	00d2      	lsls	r2, r2, #3
100032aa:	e780      	b.n	100031ae <_malloc_r+0x2f6>
100032ac:	42bc      	cmp	r4, r7
100032ae:	d060      	beq.n	10003372 <_malloc_r+0x4ba>
100032b0:	68bc      	ldr	r4, [r7, #8]
100032b2:	6862      	ldr	r2, [r4, #4]
100032b4:	2303      	movs	r3, #3
100032b6:	439a      	bics	r2, r3
100032b8:	1b53      	subs	r3, r2, r5
100032ba:	4295      	cmp	r5, r2
100032bc:	d802      	bhi.n	100032c4 <_malloc_r+0x40c>
100032be:	2b0f      	cmp	r3, #15
100032c0:	dd00      	ble.n	100032c4 <_malloc_r+0x40c>
100032c2:	e75b      	b.n	1000317c <_malloc_r+0x2c4>
100032c4:	0030      	movs	r0, r6
100032c6:	f000 f8b9 	bl	1000343c <__malloc_unlock>
100032ca:	2000      	movs	r0, #0
100032cc:	e6a6      	b.n	1000301c <_malloc_r+0x164>
100032ce:	235b      	movs	r3, #91	; 0x5b
100032d0:	4698      	mov	r8, r3
100032d2:	4488      	add	r8, r1
100032d4:	315c      	adds	r1, #92	; 0x5c
100032d6:	00c8      	lsls	r0, r1, #3
100032d8:	e634      	b.n	10002f44 <_malloc_r+0x8c>
100032da:	2308      	movs	r3, #8
100032dc:	425b      	negs	r3, r3
100032de:	469c      	mov	ip, r3
100032e0:	44e1      	add	r9, ip
100032e2:	464b      	mov	r3, r9
100032e4:	689b      	ldr	r3, [r3, #8]
100032e6:	3901      	subs	r1, #1
100032e8:	454b      	cmp	r3, r9
100032ea:	d000      	beq.n	100032ee <_malloc_r+0x436>
100032ec:	e098      	b.n	10003420 <_malloc_r+0x568>
100032ee:	4643      	mov	r3, r8
100032f0:	420b      	tst	r3, r1
100032f2:	d1f2      	bne.n	100032da <_malloc_r+0x422>
100032f4:	687b      	ldr	r3, [r7, #4]
100032f6:	4383      	bics	r3, r0
100032f8:	607b      	str	r3, [r7, #4]
100032fa:	0040      	lsls	r0, r0, #1
100032fc:	4298      	cmp	r0, r3
100032fe:	d900      	bls.n	10003302 <_malloc_r+0x44a>
10003300:	e6a9      	b.n	10003056 <_malloc_r+0x19e>
10003302:	2800      	cmp	r0, #0
10003304:	d104      	bne.n	10003310 <_malloc_r+0x458>
10003306:	e6a6      	b.n	10003056 <_malloc_r+0x19e>
10003308:	2204      	movs	r2, #4
1000330a:	4694      	mov	ip, r2
1000330c:	0040      	lsls	r0, r0, #1
1000330e:	44e2      	add	sl, ip
10003310:	4203      	tst	r3, r0
10003312:	d0f9      	beq.n	10003308 <_malloc_r+0x450>
10003314:	4651      	mov	r1, sl
10003316:	e65d      	b.n	10002fd4 <_malloc_r+0x11c>
10003318:	3310      	adds	r3, #16
1000331a:	9300      	str	r3, [sp, #0]
1000331c:	e6b8      	b.n	10003090 <_malloc_r+0x1d8>
1000331e:	1080      	asrs	r0, r0, #2
10003320:	3b02      	subs	r3, #2
10003322:	4083      	lsls	r3, r0
10003324:	6878      	ldr	r0, [r7, #4]
10003326:	4303      	orrs	r3, r0
10003328:	607b      	str	r3, [r7, #4]
1000332a:	e757      	b.n	100031dc <_malloc_r+0x324>
1000332c:	9b00      	ldr	r3, [sp, #0]
1000332e:	0030      	movs	r0, r6
10003330:	444b      	add	r3, r9
10003332:	425b      	negs	r3, r3
10003334:	051b      	lsls	r3, r3, #20
10003336:	0d1b      	lsrs	r3, r3, #20
10003338:	0019      	movs	r1, r3
1000333a:	4698      	mov	r8, r3
1000333c:	f000 f886 	bl	1000344c <_sbrk_r>
10003340:	1c43      	adds	r3, r0, #1
10003342:	d000      	beq.n	10003346 <_malloc_r+0x48e>
10003344:	e6e5      	b.n	10003112 <_malloc_r+0x25a>
10003346:	2300      	movs	r3, #0
10003348:	4698      	mov	r8, r3
1000334a:	e6e7      	b.n	1000311c <_malloc_r+0x264>
1000334c:	2a54      	cmp	r2, #84	; 0x54
1000334e:	d82b      	bhi.n	100033a8 <_malloc_r+0x4f0>
10003350:	0b1a      	lsrs	r2, r3, #12
10003352:	0010      	movs	r0, r2
10003354:	326f      	adds	r2, #111	; 0x6f
10003356:	306e      	adds	r0, #110	; 0x6e
10003358:	00d2      	lsls	r2, r2, #3
1000335a:	e728      	b.n	100031ae <_malloc_r+0x2f6>
1000335c:	23aa      	movs	r3, #170	; 0xaa
1000335e:	005b      	lsls	r3, r3, #1
10003360:	4299      	cmp	r1, r3
10003362:	d82b      	bhi.n	100033bc <_malloc_r+0x504>
10003364:	3bdd      	subs	r3, #221	; 0xdd
10003366:	4698      	mov	r8, r3
10003368:	0be9      	lsrs	r1, r5, #15
1000336a:	4488      	add	r8, r1
1000336c:	3178      	adds	r1, #120	; 0x78
1000336e:	00c8      	lsls	r0, r1, #3
10003370:	e5e8      	b.n	10002f44 <_malloc_r+0x8c>
10003372:	4b2c      	ldr	r3, [pc, #176]	; (10003424 <_malloc_r+0x56c>)
10003374:	469b      	mov	fp, r3
10003376:	681a      	ldr	r2, [r3, #0]
10003378:	9b00      	ldr	r3, [sp, #0]
1000337a:	469c      	mov	ip, r3
1000337c:	465b      	mov	r3, fp
1000337e:	4462      	add	r2, ip
10003380:	601a      	str	r2, [r3, #0]
10003382:	e69f      	b.n	100030c4 <_malloc_r+0x20c>
10003384:	0509      	lsls	r1, r1, #20
10003386:	d000      	beq.n	1000338a <_malloc_r+0x4d2>
10003388:	e69c      	b.n	100030c4 <_malloc_r+0x20c>
1000338a:	0002      	movs	r2, r0
1000338c:	68bc      	ldr	r4, [r7, #8]
1000338e:	4452      	add	r2, sl
10003390:	3101      	adds	r1, #1
10003392:	430a      	orrs	r2, r1
10003394:	6062      	str	r2, [r4, #4]
10003396:	e6e5      	b.n	10003164 <_malloc_r+0x2ac>
10003398:	4643      	mov	r3, r8
1000339a:	464a      	mov	r2, r9
1000339c:	601a      	str	r2, [r3, #0]
1000339e:	e69c      	b.n	100030da <_malloc_r+0x222>
100033a0:	464c      	mov	r4, r9
100033a2:	e6df      	b.n	10003164 <_malloc_r+0x2ac>
100033a4:	6048      	str	r0, [r1, #4]
100033a6:	e78d      	b.n	100032c4 <_malloc_r+0x40c>
100033a8:	20aa      	movs	r0, #170	; 0xaa
100033aa:	0040      	lsls	r0, r0, #1
100033ac:	4282      	cmp	r2, r0
100033ae:	d824      	bhi.n	100033fa <_malloc_r+0x542>
100033b0:	0bda      	lsrs	r2, r3, #15
100033b2:	0010      	movs	r0, r2
100033b4:	3278      	adds	r2, #120	; 0x78
100033b6:	3077      	adds	r0, #119	; 0x77
100033b8:	00d2      	lsls	r2, r2, #3
100033ba:	e6f8      	b.n	100031ae <_malloc_r+0x2f6>
100033bc:	4b1a      	ldr	r3, [pc, #104]	; (10003428 <_malloc_r+0x570>)
100033be:	4299      	cmp	r1, r3
100033c0:	d824      	bhi.n	1000340c <_malloc_r+0x554>
100033c2:	237c      	movs	r3, #124	; 0x7c
100033c4:	4698      	mov	r8, r3
100033c6:	0ca9      	lsrs	r1, r5, #18
100033c8:	4488      	add	r8, r1
100033ca:	317d      	adds	r1, #125	; 0x7d
100033cc:	00c8      	lsls	r0, r1, #3
100033ce:	e5b9      	b.n	10002f44 <_malloc_r+0x8c>
100033d0:	9a00      	ldr	r2, [sp, #0]
100033d2:	9b01      	ldr	r3, [sp, #4]
100033d4:	4694      	mov	ip, r2
100033d6:	464a      	mov	r2, r9
100033d8:	3b08      	subs	r3, #8
100033da:	4463      	add	r3, ip
100033dc:	1a9b      	subs	r3, r3, r2
100033de:	9300      	str	r3, [sp, #0]
100033e0:	2300      	movs	r3, #0
100033e2:	4698      	mov	r8, r3
100033e4:	e69a      	b.n	1000311c <_malloc_r+0x264>
100033e6:	0021      	movs	r1, r4
100033e8:	0030      	movs	r0, r6
100033ea:	3108      	adds	r1, #8
100033ec:	f000 f91e 	bl	1000362c <_free_r>
100033f0:	465b      	mov	r3, fp
100033f2:	68bc      	ldr	r4, [r7, #8]
100033f4:	681b      	ldr	r3, [r3, #0]
100033f6:	6862      	ldr	r2, [r4, #4]
100033f8:	e6b4      	b.n	10003164 <_malloc_r+0x2ac>
100033fa:	480b      	ldr	r0, [pc, #44]	; (10003428 <_malloc_r+0x570>)
100033fc:	4282      	cmp	r2, r0
100033fe:	d80b      	bhi.n	10003418 <_malloc_r+0x560>
10003400:	0c9a      	lsrs	r2, r3, #18
10003402:	0010      	movs	r0, r2
10003404:	327d      	adds	r2, #125	; 0x7d
10003406:	307c      	adds	r0, #124	; 0x7c
10003408:	00d2      	lsls	r2, r2, #3
1000340a:	e6d0      	b.n	100031ae <_malloc_r+0x2f6>
1000340c:	20fe      	movs	r0, #254	; 0xfe
1000340e:	237e      	movs	r3, #126	; 0x7e
10003410:	217f      	movs	r1, #127	; 0x7f
10003412:	4698      	mov	r8, r3
10003414:	0080      	lsls	r0, r0, #2
10003416:	e595      	b.n	10002f44 <_malloc_r+0x8c>
10003418:	22fe      	movs	r2, #254	; 0xfe
1000341a:	207e      	movs	r0, #126	; 0x7e
1000341c:	0092      	lsls	r2, r2, #2
1000341e:	e6c6      	b.n	100031ae <_malloc_r+0x2f6>
10003420:	687b      	ldr	r3, [r7, #4]
10003422:	e76a      	b.n	100032fa <_malloc_r+0x442>
10003424:	20000ef8 	.word	0x20000ef8
10003428:	00000554 	.word	0x00000554

1000342c <__malloc_lock>:
1000342c:	b510      	push	{r4, lr}
1000342e:	4802      	ldr	r0, [pc, #8]	; (10003438 <__malloc_lock+0xc>)
10003430:	f000 f9e6 	bl	10003800 <__retarget_lock_acquire_recursive>
10003434:	bd10      	pop	{r4, pc}
10003436:	46c0      	nop			; (mov r8, r8)
10003438:	20000ef4 	.word	0x20000ef4

1000343c <__malloc_unlock>:
1000343c:	b510      	push	{r4, lr}
1000343e:	4802      	ldr	r0, [pc, #8]	; (10003448 <__malloc_unlock+0xc>)
10003440:	f000 f9e0 	bl	10003804 <__retarget_lock_release_recursive>
10003444:	bd10      	pop	{r4, pc}
10003446:	46c0      	nop			; (mov r8, r8)
10003448:	20000ef4 	.word	0x20000ef4

1000344c <_sbrk_r>:
1000344c:	2300      	movs	r3, #0
1000344e:	b570      	push	{r4, r5, r6, lr}
10003450:	4c06      	ldr	r4, [pc, #24]	; (1000346c <_sbrk_r+0x20>)
10003452:	0005      	movs	r5, r0
10003454:	0008      	movs	r0, r1
10003456:	6023      	str	r3, [r4, #0]
10003458:	f7ff f882 	bl	10002560 <_sbrk>
1000345c:	1c43      	adds	r3, r0, #1
1000345e:	d000      	beq.n	10003462 <_sbrk_r+0x16>
10003460:	bd70      	pop	{r4, r5, r6, pc}
10003462:	6823      	ldr	r3, [r4, #0]
10003464:	2b00      	cmp	r3, #0
10003466:	d0fb      	beq.n	10003460 <_sbrk_r+0x14>
10003468:	602b      	str	r3, [r5, #0]
1000346a:	e7f9      	b.n	10003460 <_sbrk_r+0x14>
1000346c:	2000108c 	.word	0x2000108c

10003470 <strlen>:
10003470:	b510      	push	{r4, lr}
10003472:	0783      	lsls	r3, r0, #30
10003474:	d00a      	beq.n	1000348c <strlen+0x1c>
10003476:	0003      	movs	r3, r0
10003478:	2103      	movs	r1, #3
1000347a:	e002      	b.n	10003482 <strlen+0x12>
1000347c:	3301      	adds	r3, #1
1000347e:	420b      	tst	r3, r1
10003480:	d005      	beq.n	1000348e <strlen+0x1e>
10003482:	781a      	ldrb	r2, [r3, #0]
10003484:	2a00      	cmp	r2, #0
10003486:	d1f9      	bne.n	1000347c <strlen+0xc>
10003488:	1a18      	subs	r0, r3, r0
1000348a:	bd10      	pop	{r4, pc}
1000348c:	0003      	movs	r3, r0
1000348e:	6819      	ldr	r1, [r3, #0]
10003490:	4a0c      	ldr	r2, [pc, #48]	; (100034c4 <strlen+0x54>)
10003492:	4c0d      	ldr	r4, [pc, #52]	; (100034c8 <strlen+0x58>)
10003494:	188a      	adds	r2, r1, r2
10003496:	438a      	bics	r2, r1
10003498:	4222      	tst	r2, r4
1000349a:	d10f      	bne.n	100034bc <strlen+0x4c>
1000349c:	6859      	ldr	r1, [r3, #4]
1000349e:	4a09      	ldr	r2, [pc, #36]	; (100034c4 <strlen+0x54>)
100034a0:	3304      	adds	r3, #4
100034a2:	188a      	adds	r2, r1, r2
100034a4:	438a      	bics	r2, r1
100034a6:	4222      	tst	r2, r4
100034a8:	d108      	bne.n	100034bc <strlen+0x4c>
100034aa:	6859      	ldr	r1, [r3, #4]
100034ac:	4a05      	ldr	r2, [pc, #20]	; (100034c4 <strlen+0x54>)
100034ae:	3304      	adds	r3, #4
100034b0:	188a      	adds	r2, r1, r2
100034b2:	438a      	bics	r2, r1
100034b4:	4222      	tst	r2, r4
100034b6:	d0f1      	beq.n	1000349c <strlen+0x2c>
100034b8:	e000      	b.n	100034bc <strlen+0x4c>
100034ba:	3301      	adds	r3, #1
100034bc:	781a      	ldrb	r2, [r3, #0]
100034be:	2a00      	cmp	r2, #0
100034c0:	d1fb      	bne.n	100034ba <strlen+0x4a>
100034c2:	e7e1      	b.n	10003488 <strlen+0x18>
100034c4:	fefefeff 	.word	0xfefefeff
100034c8:	80808080 	.word	0x80808080

100034cc <__register_exitproc>:
100034cc:	b5f0      	push	{r4, r5, r6, r7, lr}
100034ce:	46d6      	mov	lr, sl
100034d0:	464f      	mov	r7, r9
100034d2:	4646      	mov	r6, r8
100034d4:	4698      	mov	r8, r3
100034d6:	4b26      	ldr	r3, [pc, #152]	; (10003570 <__register_exitproc+0xa4>)
100034d8:	b5c0      	push	{r6, r7, lr}
100034da:	0006      	movs	r6, r0
100034dc:	6818      	ldr	r0, [r3, #0]
100034de:	4691      	mov	r9, r2
100034e0:	469a      	mov	sl, r3
100034e2:	000f      	movs	r7, r1
100034e4:	f000 f98c 	bl	10003800 <__retarget_lock_acquire_recursive>
100034e8:	22a4      	movs	r2, #164	; 0xa4
100034ea:	4b22      	ldr	r3, [pc, #136]	; (10003574 <__register_exitproc+0xa8>)
100034ec:	0052      	lsls	r2, r2, #1
100034ee:	681b      	ldr	r3, [r3, #0]
100034f0:	589d      	ldr	r5, [r3, r2]
100034f2:	2d00      	cmp	r5, #0
100034f4:	d032      	beq.n	1000355c <__register_exitproc+0x90>
100034f6:	4653      	mov	r3, sl
100034f8:	686c      	ldr	r4, [r5, #4]
100034fa:	6818      	ldr	r0, [r3, #0]
100034fc:	2c1f      	cmp	r4, #31
100034fe:	dc32      	bgt.n	10003566 <__register_exitproc+0x9a>
10003500:	2e00      	cmp	r6, #0
10003502:	d10c      	bne.n	1000351e <__register_exitproc+0x52>
10003504:	1c63      	adds	r3, r4, #1
10003506:	3402      	adds	r4, #2
10003508:	00a4      	lsls	r4, r4, #2
1000350a:	606b      	str	r3, [r5, #4]
1000350c:	5167      	str	r7, [r4, r5]
1000350e:	f000 f979 	bl	10003804 <__retarget_lock_release_recursive>
10003512:	2000      	movs	r0, #0
10003514:	bce0      	pop	{r5, r6, r7}
10003516:	46ba      	mov	sl, r7
10003518:	46b1      	mov	r9, r6
1000351a:	46a8      	mov	r8, r5
1000351c:	bdf0      	pop	{r4, r5, r6, r7, pc}
1000351e:	4649      	mov	r1, r9
10003520:	2288      	movs	r2, #136	; 0x88
10003522:	00a3      	lsls	r3, r4, #2
10003524:	18eb      	adds	r3, r5, r3
10003526:	5099      	str	r1, [r3, r2]
10003528:	21c4      	movs	r1, #196	; 0xc4
1000352a:	0049      	lsls	r1, r1, #1
1000352c:	468c      	mov	ip, r1
1000352e:	44ac      	add	ip, r5
10003530:	4661      	mov	r1, ip
10003532:	3a87      	subs	r2, #135	; 0x87
10003534:	40a2      	lsls	r2, r4
10003536:	6809      	ldr	r1, [r1, #0]
10003538:	4691      	mov	r9, r2
1000353a:	4311      	orrs	r1, r2
1000353c:	4662      	mov	r2, ip
1000353e:	6011      	str	r1, [r2, #0]
10003540:	2184      	movs	r1, #132	; 0x84
10003542:	4642      	mov	r2, r8
10003544:	0049      	lsls	r1, r1, #1
10003546:	505a      	str	r2, [r3, r1]
10003548:	2e02      	cmp	r6, #2
1000354a:	d1db      	bne.n	10003504 <__register_exitproc+0x38>
1000354c:	0029      	movs	r1, r5
1000354e:	464a      	mov	r2, r9
10003550:	318d      	adds	r1, #141	; 0x8d
10003552:	31ff      	adds	r1, #255	; 0xff
10003554:	680b      	ldr	r3, [r1, #0]
10003556:	4313      	orrs	r3, r2
10003558:	600b      	str	r3, [r1, #0]
1000355a:	e7d3      	b.n	10003504 <__register_exitproc+0x38>
1000355c:	001d      	movs	r5, r3
1000355e:	354d      	adds	r5, #77	; 0x4d
10003560:	35ff      	adds	r5, #255	; 0xff
10003562:	509d      	str	r5, [r3, r2]
10003564:	e7c7      	b.n	100034f6 <__register_exitproc+0x2a>
10003566:	f000 f94d 	bl	10003804 <__retarget_lock_release_recursive>
1000356a:	2001      	movs	r0, #1
1000356c:	4240      	negs	r0, r0
1000356e:	e7d1      	b.n	10003514 <__register_exitproc+0x48>
10003570:	20000ba0 	.word	0x20000ba0
10003574:	1000397c 	.word	0x1000397c

10003578 <register_fini>:
10003578:	4b03      	ldr	r3, [pc, #12]	; (10003588 <register_fini+0x10>)
1000357a:	b510      	push	{r4, lr}
1000357c:	2b00      	cmp	r3, #0
1000357e:	d002      	beq.n	10003586 <register_fini+0xe>
10003580:	4802      	ldr	r0, [pc, #8]	; (1000358c <register_fini+0x14>)
10003582:	f7ff fc69 	bl	10002e58 <atexit>
10003586:	bd10      	pop	{r4, pc}
10003588:	00000000 	.word	0x00000000
1000358c:	10002e69 	.word	0x10002e69

10003590 <_malloc_trim_r>:
10003590:	b5f8      	push	{r3, r4, r5, r6, r7, lr}
10003592:	000c      	movs	r4, r1
10003594:	0005      	movs	r5, r0
10003596:	f7ff ff49 	bl	1000342c <__malloc_lock>
1000359a:	4f20      	ldr	r7, [pc, #128]	; (1000361c <_malloc_trim_r+0x8c>)
1000359c:	68bb      	ldr	r3, [r7, #8]
1000359e:	685e      	ldr	r6, [r3, #4]
100035a0:	2303      	movs	r3, #3
100035a2:	439e      	bics	r6, r3
100035a4:	4b1e      	ldr	r3, [pc, #120]	; (10003620 <_malloc_trim_r+0x90>)
100035a6:	1b34      	subs	r4, r6, r4
100035a8:	469c      	mov	ip, r3
100035aa:	4464      	add	r4, ip
100035ac:	0b24      	lsrs	r4, r4, #12
100035ae:	3c01      	subs	r4, #1
100035b0:	3311      	adds	r3, #17
100035b2:	0324      	lsls	r4, r4, #12
100035b4:	429c      	cmp	r4, r3
100035b6:	db07      	blt.n	100035c8 <_malloc_trim_r+0x38>
100035b8:	2100      	movs	r1, #0
100035ba:	0028      	movs	r0, r5
100035bc:	f7ff ff46 	bl	1000344c <_sbrk_r>
100035c0:	68bb      	ldr	r3, [r7, #8]
100035c2:	199b      	adds	r3, r3, r6
100035c4:	4298      	cmp	r0, r3
100035c6:	d004      	beq.n	100035d2 <_malloc_trim_r+0x42>
100035c8:	0028      	movs	r0, r5
100035ca:	f7ff ff37 	bl	1000343c <__malloc_unlock>
100035ce:	2000      	movs	r0, #0
100035d0:	bdf8      	pop	{r3, r4, r5, r6, r7, pc}
100035d2:	0028      	movs	r0, r5
100035d4:	4261      	negs	r1, r4
100035d6:	f7ff ff39 	bl	1000344c <_sbrk_r>
100035da:	3001      	adds	r0, #1
100035dc:	d00d      	beq.n	100035fa <_malloc_trim_r+0x6a>
100035de:	2201      	movs	r2, #1
100035e0:	1b36      	subs	r6, r6, r4
100035e2:	68bb      	ldr	r3, [r7, #8]
100035e4:	4316      	orrs	r6, r2
100035e6:	4a0f      	ldr	r2, [pc, #60]	; (10003624 <_malloc_trim_r+0x94>)
100035e8:	605e      	str	r6, [r3, #4]
100035ea:	6813      	ldr	r3, [r2, #0]
100035ec:	0028      	movs	r0, r5
100035ee:	1b1b      	subs	r3, r3, r4
100035f0:	6013      	str	r3, [r2, #0]
100035f2:	f7ff ff23 	bl	1000343c <__malloc_unlock>
100035f6:	2001      	movs	r0, #1
100035f8:	e7ea      	b.n	100035d0 <_malloc_trim_r+0x40>
100035fa:	2100      	movs	r1, #0
100035fc:	0028      	movs	r0, r5
100035fe:	f7ff ff25 	bl	1000344c <_sbrk_r>
10003602:	68ba      	ldr	r2, [r7, #8]
10003604:	1a83      	subs	r3, r0, r2
10003606:	2b0f      	cmp	r3, #15
10003608:	ddde      	ble.n	100035c8 <_malloc_trim_r+0x38>
1000360a:	4c07      	ldr	r4, [pc, #28]	; (10003628 <_malloc_trim_r+0x98>)
1000360c:	4905      	ldr	r1, [pc, #20]	; (10003624 <_malloc_trim_r+0x94>)
1000360e:	6824      	ldr	r4, [r4, #0]
10003610:	1b00      	subs	r0, r0, r4
10003612:	6008      	str	r0, [r1, #0]
10003614:	2101      	movs	r1, #1
10003616:	430b      	orrs	r3, r1
10003618:	6053      	str	r3, [r2, #4]
1000361a:	e7d5      	b.n	100035c8 <_malloc_trim_r+0x38>
1000361c:	20000790 	.word	0x20000790
10003620:	00000fef 	.word	0x00000fef
10003624:	20000ef8 	.word	0x20000ef8
10003628:	20000b98 	.word	0x20000b98

1000362c <_free_r>:
1000362c:	b5f8      	push	{r3, r4, r5, r6, r7, lr}
1000362e:	46ce      	mov	lr, r9
10003630:	4647      	mov	r7, r8
10003632:	0005      	movs	r5, r0
10003634:	000c      	movs	r4, r1
10003636:	b580      	push	{r7, lr}
10003638:	2900      	cmp	r1, #0
1000363a:	d059      	beq.n	100036f0 <_free_r+0xc4>
1000363c:	f7ff fef6 	bl	1000342c <__malloc_lock>
10003640:	0021      	movs	r1, r4
10003642:	3908      	subs	r1, #8
10003644:	6848      	ldr	r0, [r1, #4]
10003646:	2301      	movs	r3, #1
10003648:	0002      	movs	r2, r0
1000364a:	2403      	movs	r4, #3
1000364c:	439a      	bics	r2, r3
1000364e:	188f      	adds	r7, r1, r2
10003650:	469c      	mov	ip, r3
10003652:	4e66      	ldr	r6, [pc, #408]	; (100037ec <_free_r+0x1c0>)
10003654:	687b      	ldr	r3, [r7, #4]
10003656:	43a3      	bics	r3, r4
10003658:	68b4      	ldr	r4, [r6, #8]
1000365a:	42bc      	cmp	r4, r7
1000365c:	d100      	bne.n	10003660 <_free_r+0x34>
1000365e:	e072      	b.n	10003746 <_free_r+0x11a>
10003660:	18fc      	adds	r4, r7, r3
10003662:	46a1      	mov	r9, r4
10003664:	4664      	mov	r4, ip
10003666:	607b      	str	r3, [r7, #4]
10003668:	4204      	tst	r4, r0
1000366a:	d124      	bne.n	100036b6 <_free_r+0x8a>
1000366c:	6808      	ldr	r0, [r1, #0]
1000366e:	1a09      	subs	r1, r1, r0
10003670:	1812      	adds	r2, r2, r0
10003672:	6888      	ldr	r0, [r1, #8]
10003674:	4680      	mov	r8, r0
10003676:	4648      	mov	r0, r9
10003678:	6840      	ldr	r0, [r0, #4]
1000367a:	4020      	ands	r0, r4
1000367c:	0034      	movs	r4, r6
1000367e:	3408      	adds	r4, #8
10003680:	4681      	mov	r9, r0
10003682:	45a0      	cmp	r8, r4
10003684:	d053      	beq.n	1000372e <_free_r+0x102>
10003686:	4640      	mov	r0, r8
10003688:	68cc      	ldr	r4, [r1, #12]
1000368a:	60c4      	str	r4, [r0, #12]
1000368c:	60a0      	str	r0, [r4, #8]
1000368e:	4648      	mov	r0, r9
10003690:	2800      	cmp	r0, #0
10003692:	d114      	bne.n	100036be <_free_r+0x92>
10003694:	18d2      	adds	r2, r2, r3
10003696:	2301      	movs	r3, #1
10003698:	188c      	adds	r4, r1, r2
1000369a:	46a4      	mov	ip, r4
1000369c:	68b8      	ldr	r0, [r7, #8]
1000369e:	4c54      	ldr	r4, [pc, #336]	; (100037f0 <_free_r+0x1c4>)
100036a0:	4313      	orrs	r3, r2
100036a2:	42a0      	cmp	r0, r4
100036a4:	d100      	bne.n	100036a8 <_free_r+0x7c>
100036a6:	e07d      	b.n	100037a4 <_free_r+0x178>
100036a8:	68fc      	ldr	r4, [r7, #12]
100036aa:	60c4      	str	r4, [r0, #12]
100036ac:	60a0      	str	r0, [r4, #8]
100036ae:	604b      	str	r3, [r1, #4]
100036b0:	4663      	mov	r3, ip
100036b2:	601a      	str	r2, [r3, #0]
100036b4:	e007      	b.n	100036c6 <_free_r+0x9a>
100036b6:	4648      	mov	r0, r9
100036b8:	6840      	ldr	r0, [r0, #4]
100036ba:	4220      	tst	r0, r4
100036bc:	d0ea      	beq.n	10003694 <_free_r+0x68>
100036be:	4663      	mov	r3, ip
100036c0:	4313      	orrs	r3, r2
100036c2:	604b      	str	r3, [r1, #4]
100036c4:	603a      	str	r2, [r7, #0]
100036c6:	2380      	movs	r3, #128	; 0x80
100036c8:	009b      	lsls	r3, r3, #2
100036ca:	429a      	cmp	r2, r3
100036cc:	d214      	bcs.n	100036f8 <_free_r+0xcc>
100036ce:	0950      	lsrs	r0, r2, #5
100036d0:	08d3      	lsrs	r3, r2, #3
100036d2:	2201      	movs	r2, #1
100036d4:	4082      	lsls	r2, r0
100036d6:	6870      	ldr	r0, [r6, #4]
100036d8:	00db      	lsls	r3, r3, #3
100036da:	199b      	adds	r3, r3, r6
100036dc:	4302      	orrs	r2, r0
100036de:	6072      	str	r2, [r6, #4]
100036e0:	689a      	ldr	r2, [r3, #8]
100036e2:	60cb      	str	r3, [r1, #12]
100036e4:	608a      	str	r2, [r1, #8]
100036e6:	6099      	str	r1, [r3, #8]
100036e8:	60d1      	str	r1, [r2, #12]
100036ea:	0028      	movs	r0, r5
100036ec:	f7ff fea6 	bl	1000343c <__malloc_unlock>
100036f0:	bcc0      	pop	{r6, r7}
100036f2:	46b9      	mov	r9, r7
100036f4:	46b0      	mov	r8, r6
100036f6:	bdf8      	pop	{r3, r4, r5, r6, r7, pc}
100036f8:	0a54      	lsrs	r4, r2, #9
100036fa:	2c04      	cmp	r4, #4
100036fc:	d83c      	bhi.n	10003778 <_free_r+0x14c>
100036fe:	0994      	lsrs	r4, r2, #6
10003700:	0020      	movs	r0, r4
10003702:	3439      	adds	r4, #57	; 0x39
10003704:	3038      	adds	r0, #56	; 0x38
10003706:	00e4      	lsls	r4, r4, #3
10003708:	1934      	adds	r4, r6, r4
1000370a:	6823      	ldr	r3, [r4, #0]
1000370c:	3c08      	subs	r4, #8
1000370e:	2703      	movs	r7, #3
10003710:	429c      	cmp	r4, r3
10003712:	d040      	beq.n	10003796 <_free_r+0x16a>
10003714:	6858      	ldr	r0, [r3, #4]
10003716:	43b8      	bics	r0, r7
10003718:	4290      	cmp	r0, r2
1000371a:	d902      	bls.n	10003722 <_free_r+0xf6>
1000371c:	689b      	ldr	r3, [r3, #8]
1000371e:	429c      	cmp	r4, r3
10003720:	d1f8      	bne.n	10003714 <_free_r+0xe8>
10003722:	68dc      	ldr	r4, [r3, #12]
10003724:	60cc      	str	r4, [r1, #12]
10003726:	608b      	str	r3, [r1, #8]
10003728:	60a1      	str	r1, [r4, #8]
1000372a:	60d9      	str	r1, [r3, #12]
1000372c:	e7dd      	b.n	100036ea <_free_r+0xbe>
1000372e:	2800      	cmp	r0, #0
10003730:	d157      	bne.n	100037e2 <_free_r+0x1b6>
10003732:	68b8      	ldr	r0, [r7, #8]
10003734:	189a      	adds	r2, r3, r2
10003736:	68fb      	ldr	r3, [r7, #12]
10003738:	60c3      	str	r3, [r0, #12]
1000373a:	6098      	str	r0, [r3, #8]
1000373c:	4663      	mov	r3, ip
1000373e:	4313      	orrs	r3, r2
10003740:	604b      	str	r3, [r1, #4]
10003742:	508a      	str	r2, [r1, r2]
10003744:	e7d1      	b.n	100036ea <_free_r+0xbe>
10003746:	18d3      	adds	r3, r2, r3
10003748:	4662      	mov	r2, ip
1000374a:	4202      	tst	r2, r0
1000374c:	d106      	bne.n	1000375c <_free_r+0x130>
1000374e:	680a      	ldr	r2, [r1, #0]
10003750:	1a89      	subs	r1, r1, r2
10003752:	6888      	ldr	r0, [r1, #8]
10003754:	189b      	adds	r3, r3, r2
10003756:	68ca      	ldr	r2, [r1, #12]
10003758:	60c2      	str	r2, [r0, #12]
1000375a:	6090      	str	r0, [r2, #8]
1000375c:	2201      	movs	r2, #1
1000375e:	431a      	orrs	r2, r3
10003760:	604a      	str	r2, [r1, #4]
10003762:	4a24      	ldr	r2, [pc, #144]	; (100037f4 <_free_r+0x1c8>)
10003764:	60b1      	str	r1, [r6, #8]
10003766:	6812      	ldr	r2, [r2, #0]
10003768:	429a      	cmp	r2, r3
1000376a:	d8be      	bhi.n	100036ea <_free_r+0xbe>
1000376c:	4b22      	ldr	r3, [pc, #136]	; (100037f8 <_free_r+0x1cc>)
1000376e:	0028      	movs	r0, r5
10003770:	6819      	ldr	r1, [r3, #0]
10003772:	f7ff ff0d 	bl	10003590 <_malloc_trim_r>
10003776:	e7b8      	b.n	100036ea <_free_r+0xbe>
10003778:	2c14      	cmp	r4, #20
1000377a:	d907      	bls.n	1000378c <_free_r+0x160>
1000377c:	2c54      	cmp	r4, #84	; 0x54
1000377e:	d819      	bhi.n	100037b4 <_free_r+0x188>
10003780:	0b14      	lsrs	r4, r2, #12
10003782:	0020      	movs	r0, r4
10003784:	346f      	adds	r4, #111	; 0x6f
10003786:	306e      	adds	r0, #110	; 0x6e
10003788:	00e4      	lsls	r4, r4, #3
1000378a:	e7bd      	b.n	10003708 <_free_r+0xdc>
1000378c:	0020      	movs	r0, r4
1000378e:	345c      	adds	r4, #92	; 0x5c
10003790:	305b      	adds	r0, #91	; 0x5b
10003792:	00e4      	lsls	r4, r4, #3
10003794:	e7b8      	b.n	10003708 <_free_r+0xdc>
10003796:	2201      	movs	r2, #1
10003798:	1080      	asrs	r0, r0, #2
1000379a:	4082      	lsls	r2, r0
1000379c:	6870      	ldr	r0, [r6, #4]
1000379e:	4302      	orrs	r2, r0
100037a0:	6072      	str	r2, [r6, #4]
100037a2:	e7bf      	b.n	10003724 <_free_r+0xf8>
100037a4:	60c1      	str	r1, [r0, #12]
100037a6:	6081      	str	r1, [r0, #8]
100037a8:	604b      	str	r3, [r1, #4]
100037aa:	4663      	mov	r3, ip
100037ac:	60c8      	str	r0, [r1, #12]
100037ae:	6088      	str	r0, [r1, #8]
100037b0:	601a      	str	r2, [r3, #0]
100037b2:	e79a      	b.n	100036ea <_free_r+0xbe>
100037b4:	20aa      	movs	r0, #170	; 0xaa
100037b6:	0040      	lsls	r0, r0, #1
100037b8:	4284      	cmp	r4, r0
100037ba:	d805      	bhi.n	100037c8 <_free_r+0x19c>
100037bc:	0bd4      	lsrs	r4, r2, #15
100037be:	0020      	movs	r0, r4
100037c0:	3478      	adds	r4, #120	; 0x78
100037c2:	3077      	adds	r0, #119	; 0x77
100037c4:	00e4      	lsls	r4, r4, #3
100037c6:	e79f      	b.n	10003708 <_free_r+0xdc>
100037c8:	480c      	ldr	r0, [pc, #48]	; (100037fc <_free_r+0x1d0>)
100037ca:	4284      	cmp	r4, r0
100037cc:	d805      	bhi.n	100037da <_free_r+0x1ae>
100037ce:	0c94      	lsrs	r4, r2, #18
100037d0:	0020      	movs	r0, r4
100037d2:	347d      	adds	r4, #125	; 0x7d
100037d4:	307c      	adds	r0, #124	; 0x7c
100037d6:	00e4      	lsls	r4, r4, #3
100037d8:	e796      	b.n	10003708 <_free_r+0xdc>
100037da:	24fe      	movs	r4, #254	; 0xfe
100037dc:	207e      	movs	r0, #126	; 0x7e
100037de:	00a4      	lsls	r4, r4, #2
100037e0:	e792      	b.n	10003708 <_free_r+0xdc>
100037e2:	4663      	mov	r3, ip
100037e4:	4313      	orrs	r3, r2
100037e6:	604b      	str	r3, [r1, #4]
100037e8:	603a      	str	r2, [r7, #0]
100037ea:	e77e      	b.n	100036ea <_free_r+0xbe>
100037ec:	20000790 	.word	0x20000790
100037f0:	20000798 	.word	0x20000798
100037f4:	20000b9c 	.word	0x20000b9c
100037f8:	20000f28 	.word	0x20000f28
100037fc:	00000554 	.word	0x00000554

10003800 <__retarget_lock_acquire_recursive>:
10003800:	4770      	bx	lr
10003802:	46c0      	nop			; (mov r8, r8)

10003804 <__retarget_lock_release_recursive>:
10003804:	4770      	bx	lr
10003806:	46c0      	nop			; (mov r8, r8)

10003808 <_fini>:
10003808:	b5f8      	push	{r3, r4, r5, r6, r7, lr}
1000380a:	46c0      	nop			; (mov r8, r8)
1000380c:	0000      	movs	r0, r0
	...

10003810 <__mutex_exit_veneer>:
10003810:	b401      	push	{r0}
10003812:	4802      	ldr	r0, [pc, #8]	; (1000381c <__mutex_exit_veneer+0xc>)
10003814:	4684      	mov	ip, r0
10003816:	bc01      	pop	{r0}
10003818:	4760      	bx	ip
1000381a:	bf00      	nop
1000381c:	20000149 	.word	0x20000149

10003820 <__flash_range_program_veneer>:
10003820:	b401      	push	{r0}
10003822:	4802      	ldr	r0, [pc, #8]	; (1000382c <__flash_range_program_veneer+0xc>)
10003824:	4684      	mov	ip, r0
10003826:	bc01      	pop	{r0}
10003828:	4760      	bx	ip
1000382a:	bf00      	nop
1000382c:	2000022d 	.word	0x2000022d

10003830 <____aeabi_idiv0_veneer>:
10003830:	b401      	push	{r0}
10003832:	4802      	ldr	r0, [pc, #8]	; (1000383c <____aeabi_idiv0_veneer+0xc>)
10003834:	4684      	mov	ip, r0
10003836:	bc01      	pop	{r0}
10003838:	4760      	bx	ip
1000383a:	bf00      	nop
1000383c:	200002ad 	.word	0x200002ad

10003840 <__mutex_try_enter_veneer>:
10003840:	b401      	push	{r0}
10003842:	4802      	ldr	r0, [pc, #8]	; (1000384c <__mutex_try_enter_veneer+0xc>)
10003844:	4684      	mov	ip, r0
10003846:	bc01      	pop	{r0}
10003848:	4760      	bx	ip
1000384a:	bf00      	nop
1000384c:	20000109 	.word	0x20000109

10003850 <__flash_range_erase_veneer>:
10003850:	b401      	push	{r0}
10003852:	4802      	ldr	r0, [pc, #8]	; (1000385c <__flash_range_erase_veneer+0xc>)
10003854:	4684      	mov	ip, r0
10003856:	bc01      	pop	{r0}
10003858:	4760      	bx	ip
1000385a:	bf00      	nop
1000385c:	200001ad 	.word	0x200001ad

10003860 <__mutex_enter_blocking_veneer>:
10003860:	b401      	push	{r0}
10003862:	4802      	ldr	r0, [pc, #8]	; (1000386c <__mutex_enter_blocking_veneer+0xc>)
10003864:	4684      	mov	ip, r0
10003866:	bc01      	pop	{r0}
10003868:	4760      	bx	ip
1000386a:	bf00      	nop
1000386c:	200000c1 	.word	0x200000c1

Disassembly of section .data:

200000c0 <mutex_enter_blocking>:
200000c0:	23d0      	movs	r3, #208	; 0xd0
200000c2:	b530      	push	{r4, r5, lr}
200000c4:	2500      	movs	r5, #0
200000c6:	061b      	lsls	r3, r3, #24
200000c8:	2400      	movs	r4, #0
200000ca:	575d      	ldrsb	r5, [r3, r5]
200000cc:	e006      	b.n	200000dc <mutex_enter_blocking+0x1c>
200000ce:	6803      	ldr	r3, [r0, #0]
200000d0:	f3bf 8f5f 	dmb	sy
200000d4:	601c      	str	r4, [r3, #0]
200000d6:	f381 8810 	msr	PRIMASK, r1
200000da:	bf20      	wfe
200000dc:	6802      	ldr	r2, [r0, #0]
200000de:	f3ef 8110 	mrs	r1, PRIMASK
200000e2:	b672      	cpsid	i
200000e4:	6813      	ldr	r3, [r2, #0]
200000e6:	2b00      	cmp	r3, #0
200000e8:	d0fc      	beq.n	200000e4 <mutex_enter_blocking+0x24>
200000ea:	f3bf 8f5f 	dmb	sy
200000ee:	7903      	ldrb	r3, [r0, #4]
200000f0:	2b7f      	cmp	r3, #127	; 0x7f
200000f2:	d9ec      	bls.n	200000ce <mutex_enter_blocking+0xe>
200000f4:	7105      	strb	r5, [r0, #4]
200000f6:	6803      	ldr	r3, [r0, #0]
200000f8:	f3bf 8f5f 	dmb	sy
200000fc:	2200      	movs	r2, #0
200000fe:	601a      	str	r2, [r3, #0]
20000100:	f381 8810 	msr	PRIMASK, r1
20000104:	bd30      	pop	{r4, r5, pc}
20000106:	46c0      	nop			; (mov r8, r8)

20000108 <mutex_try_enter>:
20000108:	0003      	movs	r3, r0
2000010a:	6800      	ldr	r0, [r0, #0]
2000010c:	f3ef 8c10 	mrs	ip, PRIMASK
20000110:	b672      	cpsid	i
20000112:	6802      	ldr	r2, [r0, #0]
20000114:	2a00      	cmp	r2, #0
20000116:	d0fc      	beq.n	20000112 <mutex_try_enter+0xa>
20000118:	f3bf 8f5f 	dmb	sy
2000011c:	2204      	movs	r2, #4
2000011e:	569a      	ldrsb	r2, [r3, r2]
20000120:	2a00      	cmp	r2, #0
20000122:	db04      	blt.n	2000012e <mutex_try_enter+0x26>
20000124:	2900      	cmp	r1, #0
20000126:	d000      	beq.n	2000012a <mutex_try_enter+0x22>
20000128:	600a      	str	r2, [r1, #0]
2000012a:	2000      	movs	r0, #0
2000012c:	e004      	b.n	20000138 <mutex_try_enter+0x30>
2000012e:	22d0      	movs	r2, #208	; 0xd0
20000130:	2001      	movs	r0, #1
20000132:	0612      	lsls	r2, r2, #24
20000134:	6812      	ldr	r2, [r2, #0]
20000136:	711a      	strb	r2, [r3, #4]
20000138:	681b      	ldr	r3, [r3, #0]
2000013a:	f3bf 8f5f 	dmb	sy
2000013e:	2200      	movs	r2, #0
20000140:	601a      	str	r2, [r3, #0]
20000142:	f38c 8810 	msr	PRIMASK, ip
20000146:	4770      	bx	lr

20000148 <mutex_exit>:
20000148:	6802      	ldr	r2, [r0, #0]
2000014a:	f3ef 8110 	mrs	r1, PRIMASK
2000014e:	b672      	cpsid	i
20000150:	6813      	ldr	r3, [r2, #0]
20000152:	2b00      	cmp	r3, #0
20000154:	d0fc      	beq.n	20000150 <mutex_exit+0x8>
20000156:	f3bf 8f5f 	dmb	sy
2000015a:	23ff      	movs	r3, #255	; 0xff
2000015c:	7103      	strb	r3, [r0, #4]
2000015e:	6803      	ldr	r3, [r0, #0]
20000160:	f3bf 8f5f 	dmb	sy
20000164:	2200      	movs	r2, #0
20000166:	601a      	str	r2, [r3, #0]
20000168:	f381 8810 	msr	PRIMASK, r1
2000016c:	bf40      	sev
2000016e:	4770      	bx	lr

20000170 <flash_init_boot2_copyout>:
20000170:	b510      	push	{r4, lr}
20000172:	4c08      	ldr	r4, [pc, #32]	; (20000194 <flash_init_boot2_copyout+0x24>)
20000174:	7823      	ldrb	r3, [r4, #0]
20000176:	2b00      	cmp	r3, #0
20000178:	d10a      	bne.n	20000190 <flash_init_boot2_copyout+0x20>
2000017a:	2380      	movs	r3, #128	; 0x80
2000017c:	4806      	ldr	r0, [pc, #24]	; (20000198 <flash_init_boot2_copyout+0x28>)
2000017e:	4907      	ldr	r1, [pc, #28]	; (2000019c <flash_init_boot2_copyout+0x2c>)
20000180:	055b      	lsls	r3, r3, #21
20000182:	681a      	ldr	r2, [r3, #0]
20000184:	50c2      	str	r2, [r0, r3]
20000186:	3304      	adds	r3, #4
20000188:	428b      	cmp	r3, r1
2000018a:	d1fa      	bne.n	20000182 <flash_init_boot2_copyout+0x12>
2000018c:	2301      	movs	r3, #1
2000018e:	7023      	strb	r3, [r4, #0]
20000190:	bd10      	pop	{r4, pc}
20000192:	46c0      	nop			; (mov r8, r8)
20000194:	20001300 	.word	0x20001300
20000198:	10000f40 	.word	0x10000f40
2000019c:	10000100 	.word	0x10000100

200001a0 <flash_enable_xip_via_boot2>:
200001a0:	b510      	push	{r4, lr}
200001a2:	4b01      	ldr	r3, [pc, #4]	; (200001a8 <flash_enable_xip_via_boot2+0x8>)
200001a4:	4798      	blx	r3
200001a6:	bd10      	pop	{r4, pc}
200001a8:	20000f41 	.word	0x20000f41

200001ac <flash_range_erase>:
200001ac:	b5f0      	push	{r4, r5, r6, r7, lr}
200001ae:	2380      	movs	r3, #128	; 0x80
200001b0:	46d6      	mov	lr, sl
200001b2:	464f      	mov	r7, r9
200001b4:	4646      	mov	r6, r8
200001b6:	1842      	adds	r2, r0, r1
200001b8:	0004      	movs	r4, r0
200001ba:	000d      	movs	r5, r1
200001bc:	b5c0      	push	{r6, r7, lr}
200001be:	039b      	lsls	r3, r3, #14
200001c0:	429a      	cmp	r2, r3
200001c2:	d827      	bhi.n	20000214 <flash_range_erase+0x68>
200001c4:	2714      	movs	r7, #20
200001c6:	2618      	movs	r6, #24
200001c8:	8838      	ldrh	r0, [r7, #0]
200001ca:	8833      	ldrh	r3, [r6, #0]
200001cc:	4913      	ldr	r1, [pc, #76]	; (2000021c <flash_range_erase+0x70>)
200001ce:	4798      	blx	r3
200001d0:	8833      	ldrh	r3, [r6, #0]
200001d2:	4682      	mov	sl, r0
200001d4:	4912      	ldr	r1, [pc, #72]	; (20000220 <flash_range_erase+0x74>)
200001d6:	8838      	ldrh	r0, [r7, #0]
200001d8:	4798      	blx	r3
200001da:	8833      	ldrh	r3, [r6, #0]
200001dc:	4681      	mov	r9, r0
200001de:	4911      	ldr	r1, [pc, #68]	; (20000224 <flash_range_erase+0x78>)
200001e0:	8838      	ldrh	r0, [r7, #0]
200001e2:	4798      	blx	r3
200001e4:	8833      	ldrh	r3, [r6, #0]
200001e6:	4910      	ldr	r1, [pc, #64]	; (20000228 <flash_range_erase+0x7c>)
200001e8:	4680      	mov	r8, r0
200001ea:	8838      	ldrh	r0, [r7, #0]
200001ec:	4798      	blx	r3
200001ee:	0006      	movs	r6, r0
200001f0:	f7ff ffbe 	bl	20000170 <flash_init_boot2_copyout>
200001f4:	47d0      	blx	sl
200001f6:	47c8      	blx	r9
200001f8:	2280      	movs	r2, #128	; 0x80
200001fa:	0029      	movs	r1, r5
200001fc:	23d8      	movs	r3, #216	; 0xd8
200001fe:	0020      	movs	r0, r4
20000200:	0252      	lsls	r2, r2, #9
20000202:	47c0      	blx	r8
20000204:	47b0      	blx	r6
20000206:	f7ff ffcb 	bl	200001a0 <flash_enable_xip_via_boot2>
2000020a:	bce0      	pop	{r5, r6, r7}
2000020c:	46ba      	mov	sl, r7
2000020e:	46b1      	mov	r9, r6
20000210:	46a8      	mov	r8, r5
20000212:	bdf0      	pop	{r4, r5, r6, r7, pc}
20000214:	f000 f84c 	bl	200002b0 <__hard_assertion_failure_veneer>
20000218:	e7d4      	b.n	200001c4 <flash_range_erase+0x18>
2000021a:	46c0      	nop			; (mov r8, r8)
2000021c:	00004649 	.word	0x00004649
20000220:	00005845 	.word	0x00005845
20000224:	00004552 	.word	0x00004552
20000228:	00004346 	.word	0x00004346

2000022c <flash_range_program>:
2000022c:	b5f8      	push	{r3, r4, r5, r6, r7, lr}
2000022e:	464e      	mov	r6, r9
20000230:	4645      	mov	r5, r8
20000232:	46de      	mov	lr, fp
20000234:	4657      	mov	r7, sl
20000236:	2380      	movs	r3, #128	; 0x80
20000238:	b5e0      	push	{r5, r6, r7, lr}
2000023a:	0015      	movs	r5, r2
2000023c:	1882      	adds	r2, r0, r2
2000023e:	0004      	movs	r4, r0
20000240:	4689      	mov	r9, r1
20000242:	039b      	lsls	r3, r3, #14
20000244:	429a      	cmp	r2, r3
20000246:	d826      	bhi.n	20000296 <flash_range_program+0x6a>
20000248:	2714      	movs	r7, #20
2000024a:	2618      	movs	r6, #24
2000024c:	8838      	ldrh	r0, [r7, #0]
2000024e:	8833      	ldrh	r3, [r6, #0]
20000250:	4912      	ldr	r1, [pc, #72]	; (2000029c <flash_range_program+0x70>)
20000252:	4798      	blx	r3
20000254:	8833      	ldrh	r3, [r6, #0]
20000256:	4683      	mov	fp, r0
20000258:	4911      	ldr	r1, [pc, #68]	; (200002a0 <flash_range_program+0x74>)
2000025a:	8838      	ldrh	r0, [r7, #0]
2000025c:	4798      	blx	r3
2000025e:	8833      	ldrh	r3, [r6, #0]
20000260:	4682      	mov	sl, r0
20000262:	4910      	ldr	r1, [pc, #64]	; (200002a4 <flash_range_program+0x78>)
20000264:	8838      	ldrh	r0, [r7, #0]
20000266:	4798      	blx	r3
20000268:	8833      	ldrh	r3, [r6, #0]
2000026a:	490f      	ldr	r1, [pc, #60]	; (200002a8 <flash_range_program+0x7c>)
2000026c:	4680      	mov	r8, r0
2000026e:	8838      	ldrh	r0, [r7, #0]
20000270:	4798      	blx	r3
20000272:	0006      	movs	r6, r0
20000274:	f7ff ff7c 	bl	20000170 <flash_init_boot2_copyout>
20000278:	47d8      	blx	fp
2000027a:	47d0      	blx	sl
2000027c:	002a      	movs	r2, r5
2000027e:	4649      	mov	r1, r9
20000280:	0020      	movs	r0, r4
20000282:	47c0      	blx	r8
20000284:	47b0      	blx	r6
20000286:	f7ff ff8b 	bl	200001a0 <flash_enable_xip_via_boot2>
2000028a:	bcf0      	pop	{r4, r5, r6, r7}
2000028c:	46bb      	mov	fp, r7
2000028e:	46b2      	mov	sl, r6
20000290:	46a9      	mov	r9, r5
20000292:	46a0      	mov	r8, r4
20000294:	bdf8      	pop	{r3, r4, r5, r6, r7, pc}
20000296:	f000 f80b 	bl	200002b0 <__hard_assertion_failure_veneer>
2000029a:	e7d5      	b.n	20000248 <flash_range_program+0x1c>
2000029c:	00004649 	.word	0x00004649
200002a0:	00005845 	.word	0x00005845
200002a4:	00005052 	.word	0x00005052
200002a8:	00004346 	.word	0x00004346

200002ac <__aeabi_idiv0>:
200002ac:	4770      	bx	lr
200002ae:	46c0      	nop			; (mov r8, r8)

200002b0 <__hard_assertion_failure_veneer>:
200002b0:	b401      	push	{r0}
200002b2:	4802      	ldr	r0, [pc, #8]	; (200002bc <__hard_assertion_failure_veneer+0xc>)
200002b4:	4684      	mov	ip, r0
200002b6:	bc01      	pop	{r0}
200002b8:	4760      	bx	ip
200002ba:	bf00      	nop
200002bc:	100025c9 	.word	0x100025c9

200002c0 <striped_spin_lock_num>:
200002c0:	00000010                                ....

200002c4 <irq_handler_chain_slots>:
200002c4:	00000000 	.word	0x00000000
200002c8:	00010000 	.word	0x00010000
	...
200002d4:	00020000 	.word	0x00020000
	...
200002e0:	00030000 	.word	0x00030000
	...
200002ec:	00ff0000 	.word	0x00ff0000
200002f0:	00000000 	.word	0x00000000

200002f4 <irq_handler_chain_first_slot>:
200002f4:	b500      	push	{lr}
200002f6:	6848      	ldr	r0, [r1, #4]
200002f8:	3101      	adds	r1, #1
200002fa:	468e      	mov	lr, r1
200002fc:	4700      	bx	r0

200002fe <irq_handler_chain_remove_tail>:
200002fe:	4670      	mov	r0, lr
20000300:	3809      	subs	r0, #9
20000302:	4901      	ldr	r1, [pc, #4]	; (20000308 <irq_handler_chain_remove_tail+0xa>)
20000304:	4788      	blx	r1
20000306:	bd00      	pop	{pc}
20000308:	100014e1 	.word	0x100014e1

2000030c <default_alarm_pool>:
2000030c:	20000324 00000000 20000bf0 20001048     $.. ....... H.. 
	...

20000324 <default_alarm_pool_heap>:
20000324:	20001058 00000000 00000000 00000010     X.. ............
	...

20000340 <aeabi_bits_funcs>:
20000340:	00003350 	.word	0x00003350
20000344:	0000334c 	.word	0x0000334c
20000348:	00003354 	.word	0x00003354
2000034c:	00003352 	.word	0x00003352

20000350 <aeabi_bits_funcs_end>:
20000350:	0000534d 	.word	0x0000534d
20000354:	0000434d 	.word	0x0000434d
20000358:	00003453 	.word	0x00003453
2000035c:	00003443 	.word	0x00003443

20000360 <_impure_ptr>:
20000360:	20000368 00000000                       h.. ....

20000368 <impure_data>:
20000368:	00000000 20000654 200006bc 20000724     ....T.. ... $.. 
	...
20000410:	00000001 00000000 abcd330e e66d1234     .........3..4.m.
20000420:	0005deec 0000000b 00000000 00000000     ................
	...

20000790 <__malloc_av_>:
	...
20000798:	20000790 20000790 20000798 20000798     ... ... ... ... 
200007a8:	200007a0 200007a0 200007a8 200007a8     ... ... ... ... 
200007b8:	200007b0 200007b0 200007b8 200007b8     ... ... ... ... 
200007c8:	200007c0 200007c0 200007c8 200007c8     ... ... ... ... 
200007d8:	200007d0 200007d0 200007d8 200007d8     ... ... ... ... 
200007e8:	200007e0 200007e0 200007e8 200007e8     ... ... ... ... 
200007f8:	200007f0 200007f0 200007f8 200007f8     ... ... ... ... 
20000808:	20000800 20000800 20000808 20000808     ... ... ... ... 
20000818:	20000810 20000810 20000818 20000818     ... ... ... ... 
20000828:	20000820 20000820 20000828 20000828      ..  .. (.. (.. 
20000838:	20000830 20000830 20000838 20000838     0.. 0.. 8.. 8.. 
20000848:	20000840 20000840 20000848 20000848     @.. @.. H.. H.. 
20000858:	20000850 20000850 20000858 20000858     P.. P.. X.. X.. 
20000868:	20000860 20000860 20000868 20000868     `.. `.. h.. h.. 
20000878:	20000870 20000870 20000878 20000878     p.. p.. x.. x.. 
20000888:	20000880 20000880 20000888 20000888     ... ... ... ... 
20000898:	20000890 20000890 20000898 20000898     ... ... ... ... 
200008a8:	200008a0 200008a0 200008a8 200008a8     ... ... ... ... 
200008b8:	200008b0 200008b0 200008b8 200008b8     ... ... ... ... 
200008c8:	200008c0 200008c0 200008c8 200008c8     ... ... ... ... 
200008d8:	200008d0 200008d0 200008d8 200008d8     ... ... ... ... 
200008e8:	200008e0 200008e0 200008e8 200008e8     ... ... ... ... 
200008f8:	200008f0 200008f0 200008f8 200008f8     ... ... ... ... 
20000908:	20000900 20000900 20000908 20000908     ... ... ... ... 
20000918:	20000910 20000910 20000918 20000918     ... ... ... ... 
20000928:	20000920 20000920 20000928 20000928      ..  .. (.. (.. 
20000938:	20000930 20000930 20000938 20000938     0.. 0.. 8.. 8.. 
20000948:	20000940 20000940 20000948 20000948     @.. @.. H.. H.. 
20000958:	20000950 20000950 20000958 20000958     P.. P.. X.. X.. 
20000968:	20000960 20000960 20000968 20000968     `.. `.. h.. h.. 
20000978:	20000970 20000970 20000978 20000978     p.. p.. x.. x.. 
20000988:	20000980 20000980 20000988 20000988     ... ... ... ... 
20000998:	20000990 20000990 20000998 20000998     ... ... ... ... 
200009a8:	200009a0 200009a0 200009a8 200009a8     ... ... ... ... 
200009b8:	200009b0 200009b0 200009b8 200009b8     ... ... ... ... 
200009c8:	200009c0 200009c0 200009c8 200009c8     ... ... ... ... 
200009d8:	200009d0 200009d0 200009d8 200009d8     ... ... ... ... 
200009e8:	200009e0 200009e0 200009e8 200009e8     ... ... ... ... 
200009f8:	200009f0 200009f0 200009f8 200009f8     ... ... ... ... 
20000a08:	20000a00 20000a00 20000a08 20000a08     ... ... ... ... 
20000a18:	20000a10 20000a10 20000a18 20000a18     ... ... ... ... 
20000a28:	20000a20 20000a20 20000a28 20000a28      ..  .. (.. (.. 
20000a38:	20000a30 20000a30 20000a38 20000a38     0.. 0.. 8.. 8.. 
20000a48:	20000a40 20000a40 20000a48 20000a48     @.. @.. H.. H.. 
20000a58:	20000a50 20000a50 20000a58 20000a58     P.. P.. X.. X.. 
20000a68:	20000a60 20000a60 20000a68 20000a68     `.. `.. h.. h.. 
20000a78:	20000a70 20000a70 20000a78 20000a78     p.. p.. x.. x.. 
20000a88:	20000a80 20000a80 20000a88 20000a88     ... ... ... ... 
20000a98:	20000a90 20000a90 20000a98 20000a98     ... ... ... ... 
20000aa8:	20000aa0 20000aa0 20000aa8 20000aa8     ... ... ... ... 
20000ab8:	20000ab0 20000ab0 20000ab8 20000ab8     ... ... ... ... 
20000ac8:	20000ac0 20000ac0 20000ac8 20000ac8     ... ... ... ... 
20000ad8:	20000ad0 20000ad0 20000ad8 20000ad8     ... ... ... ... 
20000ae8:	20000ae0 20000ae0 20000ae8 20000ae8     ... ... ... ... 
20000af8:	20000af0 20000af0 20000af8 20000af8     ... ... ... ... 
20000b08:	20000b00 20000b00 20000b08 20000b08     ... ... ... ... 
20000b18:	20000b10 20000b10 20000b18 20000b18     ... ... ... ... 
20000b28:	20000b20 20000b20 20000b28 20000b28      ..  .. (.. (.. 
20000b38:	20000b30 20000b30 20000b38 20000b38     0.. 0.. 8.. 8.. 
20000b48:	20000b40 20000b40 20000b48 20000b48     @.. @.. H.. H.. 
20000b58:	20000b50 20000b50 20000b58 20000b58     P.. P.. X.. X.. 
20000b68:	20000b60 20000b60 20000b68 20000b68     `.. `.. h.. h.. 
20000b78:	20000b70 20000b70 20000b78 20000b78     p.. p.. x.. x.. 
20000b88:	20000b80 20000b80 20000b88 20000b88     ... ... ... ... 

20000b98 <__malloc_sbrk_base>:
20000b98:	ffffffff                                ....

20000b9c <__malloc_trim_threshold>:
20000b9c:	00020000                                ....

20000ba0 <__atexit_recursive_mutex>:
20000ba0:	20000ef0                                ... 

20000ba4 <print_mutex>:
	...

20000bac <__mutex_array_end>:
20000bac:	10002c1d 	.word	0x10002c1d
20000bb0:	100029a9 	.word	0x100029a9
20000bb4:	10002a69 	.word	0x10002a69
20000bb8:	10002b61 	.word	0x10002b61

20000bbc <__init_array_start>:
20000bbc:	10003579 	.word	0x10003579

20000bc0 <__frame_dummy_init_array_entry>:
20000bc0:	100002c5                                ....
